(lp0
(lp1
(I0
I8
tp2
a(I13753
I14128
tp3
a(I82211
I82511
tp4
a(I134063
I134121
tp5
a(I194138
I194371
tp6
a(I403600
I403737
tp7
a(I459084
I459221
tp8
a(I502372
I502428
tp9
a(I530549
I530592
tp10
a(I546930
I547138
tp11
a(I653428
I653828
tp12
a(I746193
I746233
tp13
a(I773887
I774115
tp14
a(I822779
I822852
tp15
a(I851077
I851465
tp16
a(I974565
I974804
tp17
a(I1047866
I1048080
tp18
a(I1096231
I1096572
tp19
a(I1157488
I1157853
tp20
a(I1232780
I1233020
tp21
a(I1296750
I1296925
tp22
a(I1354543
I1354656
tp23
a(I1380797
I1381072
tp24
a(I1478206
I1478418
tp25
a(I1537490
I1537821
tp26
a(I1610020
I1610356
tp27
a(I1668141
I1668213
tp28
a(I1690983
I1691328
tp29
a(I1778543
I1778657
tp30
a(I1801572
I1801734
tp31
a(I1838321
I1838387
tp32
a(I1858971
I1859206
tp33
a(I1939934
I1940015
tp34
a(I1978138
I1978142
tp35
a(I2000674
I2001125
tp36
a(I2159712
I2160048
tp37
a(I2265324
I2265603
tp38
a(I2326016
I2326118
tp39
a(I2371755
I2372162
tp40
a(I2478939
I2479028
tp41
a(I2500569
I2500858
tp42
a(I2560018
I2560129
tp43
a(I2583637
I2583975
tp44
a(I2655821
I2656400
tp45
a(I2840594
I2840681
tp46
a(I2885485
I2885773
tp47
a(I2960193
I2960252
tp48
a(I2974923
I2975059
tp49
a(I3039541
I3039762
tp50
a(I3099871
I3100109
tp51
a(I3140397
I3140420
tp52
aa(lp53
(I8
I14
tp54
a(I14128
I14480
tp55
a(I82511
I82794
tp56
a(I134121
I134192
tp57
a(I194371
I194622
tp58
a(I403737
I403871
tp59
a(I459221
I459376
tp60
a(I502428
I502494
tp61
a(I530592
I530636
tp62
a(I547138
I547337
tp63
a(I653828
I654199
tp64
a(I746233
I746285
tp65
a(I774115
I774335
tp66
a(I822852
I822936
tp67
a(I851465
I851851
tp68
a(I974804
I975056
tp69
a(I1048080
I1048302
tp70
a(I1096572
I1096913
tp71
a(I1157853
I1158190
tp72
a(I1233020
I1233289
tp73
a(I1296925
I1297104
tp74
a(I1354656
I1354794
tp75
a(I1381072
I1381356
tp76
a(I1478418
I1478645
tp77
a(I1537821
I1538149
tp78
a(I1610356
I1610683
tp79
a(I1668213
I1668294
tp80
a(I1691328
I1691667
tp81
a(I1778657
I1778780
tp82
a(I1801734
I1801907
tp83
a(I1838387
I1838464
tp84
a(I1859206
I1859442
tp85
a(I1940015
I1940110
tp86
a(I1978142
I1978150
tp87
a(I2001125
I2001588
tp88
a(I2160048
I2160389
tp89
a(I2265603
I2265893
tp90
a(I2326118
I2326225
tp91
a(I2372162
I2372593
tp92
a(I2479028
I2479129
tp93
a(I2500858
I2501148
tp94
a(I2560129
I2560251
tp95
a(I2583975
I2584291
tp96
a(I2656400
I2656982
tp97
a(I2840681
I2840781
tp98
a(I2885773
I2886056
tp99
a(I2960252
I2960323
tp100
a(I2975059
I2975211
tp101
a(I3039762
I3039987
tp102
a(I3100109
I3100366
tp103
a(I3140420
I3140447
tp104
aa(lp105
(I14
I27
tp106
a(I14480
I14900
tp107
a(I82794
I83135
tp108
a(I134192
I134283
tp109
a(I194622
I194925
tp110
a(I403871
I404027
tp111
a(I459376
I459547
tp112
a(I502494
I502568
tp113
a(I530636
I530694
tp114
a(I547337
I547574
tp115
a(I654199
I654629
tp116
a(I746285
I746356
tp117
a(I774335
I774615
tp118
a(I822936
I823041
tp119
a(I851851
I852335
tp120
a(I975056
I975351
tp121
a(I1048302
I1048558
tp122
a(I1096913
I1097301
tp123
a(I1158190
I1158595
tp124
a(I1233289
I1233609
tp125
a(I1297104
I1297311
tp126
a(I1354794
I1354956
tp127
a(I1381356
I1381678
tp128
a(I1478645
I1478921
tp129
a(I1538149
I1538544
tp130
a(I1610683
I1611076
tp131
a(I1668294
I1668387
tp132
a(I1691667
I1692090
tp133
a(I1778780
I1778942
tp134
a(I1801907
I1802124
tp135
a(I1838464
I1838562
tp136
a(I1859442
I1859718
tp137
a(I1940110
I1940243
tp138
a(I1978150
I1978157
tp139
a(I2001588
I2002122
tp140
a(I2160389
I2160791
tp141
a(I2265893
I2266234
tp142
a(I2326225
I2326355
tp143
a(I2372593
I2373087
tp144
a(I2479129
I2479257
tp145
a(I2501148
I2501483
tp146
a(I2560251
I2560402
tp147
a(I2584291
I2584671
tp148
a(I2656982
I2657681
tp149
a(I2840781
I2840913
tp150
a(I2886056
I2886387
tp151
a(I2960323
I2960414
tp152
a(I2975211
I2975395
tp153
a(I3039987
I3040260
tp154
a(I3100366
I3100651
tp155
a(I3140447
I3140478
tp156
aa(lp157
(I27
I34
tp158
a(I14900
I15333
tp159
a(I83135
I83498
tp160
a(I134283
I134379
tp161
a(I194925
I195258
tp162
a(I404027
I404205
tp163
a(I459547
I459752
tp164
a(I502568
I502648
tp165
a(I530694
I530757
tp166
a(I547574
I547818
tp167
a(I654629
I655091
tp168
a(I746356
I746440
tp169
a(I774615
I774922
tp170
a(I823041
I823166
tp171
a(I852335
I852849
tp172
a(I975351
I975668
tp173
a(I1048558
I1048841
tp174
a(I1097301
I1097708
tp175
a(I1158595
I1159020
tp176
a(I1233609
I1233946
tp177
a(I1297311
I1297523
tp178
a(I1354956
I1355129
tp179
a(I1381678
I1382034
tp180
a(I1478921
I1479222
tp181
a(I1538544
I1538953
tp182
a(I1611076
I1611463
tp183
a(I1668387
I1668514
tp184
a(I1692090
I1692508
tp185
a(I1778942
I1779108
tp186
a(I1802124
I1802356
tp187
a(I1838562
I1838675
tp188
a(I1859718
I1859994
tp189
a(I1940243
I1940376
tp190
a(I1978157
I1978173
tp191
a(I2002122
I2002682
tp192
a(I2160791
I2161232
tp193
a(I2266234
I2266609
tp194
a(I2326355
I2326491
tp195
a(I2373087
I2373617
tp196
a(I2479257
I2479390
tp197
a(I2501483
I2501827
tp198
a(I2560402
I2560562
tp199
a(I2584671
I2585069
tp200
a(I2657681
I2658432
tp201
a(I2840913
I2841056
tp202
a(I2886387
I2886732
tp203
a(I2960414
I2960505
tp204
a(I2975395
I2975588
tp205
a(I3040260
I3040569
tp206
a(I3100651
I3100956
tp207
a(I3140478
I3140529
tp208
aa(lp209
(I34
I50
tp210
a(I15333
I15816
tp211
a(I83498
I83892
tp212
a(I134379
I134500
tp213
a(I195258
I195626
tp214
a(I404205
I404406
tp215
a(I459752
I459994
tp216
a(I502648
I502745
tp217
a(I530757
I530834
tp218
a(I547818
I548096
tp219
a(I655091
I655597
tp220
a(I746440
I746538
tp221
a(I774922
I775265
tp222
a(I823166
I823307
tp223
a(I852849
I853400
tp224
a(I975668
I976031
tp225
a(I1048841
I1049140
tp226
a(I1097708
I1098138
tp227
a(I1159020
I1159466
tp228
a(I1233946
I1234358
tp229
a(I1297523
I1297763
tp230
a(I1355129
I1355333
tp231
a(I1382034
I1382409
tp232
a(I1479222
I1479566
tp233
a(I1538953
I1539398
tp234
a(I1611463
I1611882
tp235
a(I1668514
I1668661
tp236
a(I1692508
I1692999
tp237
a(I1779108
I1779295
tp238
a(I1802356
I1802618
tp239
a(I1838675
I1838818
tp240
a(I1859994
I1860302
tp241
a(I1940376
I1940516
tp242
a(I1978173
I1978200
tp243
a(I2002682
I2003329
tp244
a(I2161232
I2161741
tp245
a(I2266609
I2267025
tp246
a(I2326491
I2326658
tp247
a(I2373617
I2374211
tp248
a(I2479390
I2479555
tp249
a(I2501827
I2502200
tp250
a(I2560562
I2560736
tp251
a(I2585069
I2585499
tp252
a(I2658432
I2659235
tp253
a(I2841056
I2841224
tp254
a(I2886732
I2887118
tp255
a(I2960505
I2960625
tp256
a(I2975588
I2975810
tp257
a(I3040569
I3040902
tp258
a(I3100956
I3101286
tp259
a(I3140529
I3140583
tp260
aa(lp261
(I50
I69
tp262
a(I15816
I16335
tp263
a(I83892
I84339
tp264
a(I134500
I134650
tp265
a(I195626
I196088
tp266
a(I404406
I404629
tp267
a(I459994
I460255
tp268
a(I502745
I502861
tp269
a(I530834
I530928
tp270
a(I548096
I548399
tp271
a(I655597
I656169
tp272
a(I746538
I746690
tp273
a(I775265
I775699
tp274
a(I823307
I823482
tp275
a(I853400
I854064
tp276
a(I976031
I976470
tp277
a(I1049140
I1049503
tp278
a(I1098138
I1098649
tp279
a(I1159466
I1159960
tp280
a(I1234358
I1234796
tp281
a(I1297763
I1298036
tp282
a(I1355333
I1355570
tp283
a(I1382409
I1382887
tp284
a(I1479566
I1479976
tp285
a(I1539398
I1539918
tp286
a(I1611882
I1612333
tp287
a(I1668661
I1668838
tp288
a(I1692999
I1693546
tp289
a(I1779295
I1779535
tp290
a(I1802618
I1802940
tp291
a(I1838818
I1838973
tp292
a(I1860302
I1860671
tp293
a(I1940516
I1940695
tp294
a(I1978200
I1978225
tp295
a(I2003329
I2004048
tp296
a(I2161741
I2162306
tp297
a(I2267025
I2267484
tp298
a(I2326658
I2326862
tp299
a(I2374211
I2374905
tp300
a(I2479555
I2479733
tp301
a(I2502200
I2502602
tp302
a(I2560736
I2560946
tp303
a(I2585499
I2585977
tp304
a(I2659235
I2660166
tp305
a(I2841224
I2841438
tp306
a(I2887118
I2887551
tp307
a(I2960625
I2960762
tp308
a(I2975810
I2976068
tp309
a(I3040902
I3041297
tp310
a(I3101286
I3101678
tp311
a(I3140583
I3140665
tp312
aa(lp313
(I69
I91
tp314
a(I16335
I16912
tp315
a(I84339
I84817
tp316
a(I134650
I134816
tp317
a(I196088
I196555
tp318
a(I404629
I404869
tp319
a(I460255
I460524
tp320
a(I502861
I502974
tp321
a(I530928
I531020
tp322
a(I548399
I548711
tp323
a(I656169
I656756
tp324
a(I746690
I746851
tp325
a(I775699
I776138
tp326
a(I823482
I823674
tp327
a(I854064
I854744
tp328
a(I976470
I976920
tp329
a(I1049503
I1049891
tp330
a(I1098649
I1099168
tp331
a(I1159960
I1160474
tp332
a(I1234796
I1235244
tp333
a(I1298036
I1298302
tp334
a(I1355570
I1355806
tp335
a(I1382887
I1383413
tp336
a(I1479976
I1480438
tp337
a(I1539918
I1540462
tp338
a(I1612333
I1612820
tp339
a(I1668838
I1669049
tp340
a(I1693546
I1694111
tp341
a(I1779535
I1779786
tp342
a(I1802940
I1803269
tp343
a(I1838973
I1839117
tp344
a(I1860671
I1861049
tp345
a(I1940695
I1940890
tp346
a(I1978225
I1978256
tp347
a(I2004048
I2004780
tp348
a(I2162306
I2162904
tp349
a(I2267484
I2267971
tp350
a(I2326862
I2327073
tp351
a(I2374905
I2375585
tp352
a(I2479733
I2479912
tp353
a(I2502602
I2503027
tp354
a(I2560946
I2561179
tp355
a(I2585977
I2586492
tp356
a(I2660166
I2661134
tp357
a(I2841438
I2841660
tp358
a(I2887551
I2888009
tp359
a(I2960762
I2960890
tp360
a(I2976068
I2976331
tp361
a(I3041297
I3041721
tp362
a(I3101678
I3102071
tp363
a(I3140665
I3140753
tp364
aa(lp365
(I91
I106
tp366
a(I16912
I17454
tp367
a(I84817
I85334
tp368
a(I134816
I135005
tp369
a(I196555
I197032
tp370
a(I404869
I405133
tp371
a(I460524
I460800
tp372
a(I502974
I503097
tp373
a(I531020
I531121
tp374
a(I548711
I549033
tp375
a(I656756
I657340
tp376
a(I746851
I747033
tp377
a(I776138
I776572
tp378
a(I823674
I823865
tp379
a(I854744
I855416
tp380
a(I976920
I977366
tp381
a(I1049891
I1050288
tp382
a(I1099168
I1099685
tp383
a(I1160474
I1161001
tp384
a(I1235244
I1235682
tp385
a(I1298302
I1298578
tp386
a(I1355806
I1356031
tp387
a(I1383413
I1383948
tp388
a(I1480438
I1480864
tp389
a(I1540462
I1541013
tp390
a(I1612820
I1613294
tp391
a(I1669049
I1669271
tp392
a(I1694111
I1694659
tp393
a(I1779786
I1780051
tp394
a(I1803269
I1803609
tp395
a(I1839117
I1839273
tp396
a(I1861049
I1861435
tp397
a(I1940890
I1941106
tp398
a(I1978256
I1978284
tp399
a(I2004780
I2005504
tp400
a(I2162904
I2163511
tp401
a(I2267971
I2268467
tp402
a(I2327073
I2327284
tp403
a(I2375585
I2376288
tp404
a(I2479912
I2480104
tp405
a(I2503027
I2503467
tp406
a(I2561179
I2561430
tp407
a(I2586492
I2587021
tp408
a(I2661134
I2662095
tp409
a(I2841660
I2841883
tp410
a(I2888009
I2888470
tp411
a(I2960890
I2961029
tp412
a(I2976331
I2976606
tp413
a(I3041721
I3042132
tp414
a(I3102071
I3102486
tp415
a(I3140753
I3140853
tp416
aa(lp417
(I106
I125
tp418
a(I17454
I18006
tp419
a(I85334
I85857
tp420
a(I135005
I135202
tp421
a(I197032
I197543
tp422
a(I405133
I405412
tp423
a(I460800
I461080
tp424
a(I503097
I503227
tp425
a(I531121
I531225
tp426
a(I549033
I549356
tp427
a(I657340
I657950
tp428
a(I747033
I747218
tp429
a(I776572
I777024
tp430
a(I823865
I824062
tp431
a(I855416
I856128
tp432
a(I977366
I977835
tp433
a(I1050288
I1050694
tp434
a(I1099685
I1100232
tp435
a(I1161001
I1161555
tp436
a(I1235682
I1236154
tp437
a(I1298578
I1298856
tp438
a(I1356031
I1356277
tp439
a(I1383948
I1384498
tp440
a(I1480864
I1481309
tp441
a(I1541013
I1541580
tp442
a(I1613294
I1613795
tp443
a(I1669271
I1669505
tp444
a(I1694659
I1695260
tp445
a(I1780051
I1780305
tp446
a(I1803609
I1803965
tp447
a(I1839273
I1839429
tp448
a(I1861435
I1861830
tp449
a(I1941106
I1941338
tp450
a(I1978284
I1978312
tp451
a(I2005504
I2006273
tp452
a(I2163511
I2164154
tp453
a(I2268467
I2269022
tp454
a(I2327284
I2327501
tp455
a(I2376288
I2377024
tp456
a(I2480104
I2480303
tp457
a(I2503467
I2503916
tp458
a(I2561430
I2561688
tp459
a(I2587021
I2587549
tp460
a(I2662095
I2663080
tp461
a(I2841883
I2842122
tp462
a(I2888470
I2888937
tp463
a(I2961029
I2961176
tp464
a(I2976606
I2976900
tp465
a(I3042132
I3042574
tp466
a(I3102486
I3102908
tp467
a(I3140853
I3140964
tp468
aa(lp469
(I125
I152
tp470
a(I18006
I18634
tp471
a(I85857
I86401
tp472
a(I135202
I135400
tp473
a(I197543
I198063
tp474
a(I405412
I405674
tp475
a(I461080
I461354
tp476
a(I503227
I503352
tp477
a(I531225
I531326
tp478
a(I549356
I549704
tp479
a(I657950
I658570
tp480
a(I747218
I747413
tp481
a(I777024
I777453
tp482
a(I824062
I824272
tp483
a(I856128
I856809
tp484
a(I977835
I978283
tp485
a(I1050694
I1051095
tp486
a(I1100232
I1100770
tp487
a(I1161555
I1162102
tp488
a(I1236154
I1236599
tp489
a(I1298856
I1299138
tp490
a(I1356277
I1356508
tp491
a(I1384498
I1385020
tp492
a(I1481309
I1481730
tp493
a(I1541580
I1542140
tp494
a(I1613795
I1614339
tp495
a(I1669505
I1669714
tp496
a(I1695260
I1695857
tp497
a(I1780305
I1780539
tp498
a(I1803965
I1804303
tp499
a(I1839429
I1839579
tp500
a(I1861830
I1862213
tp501
a(I1941338
I1941545
tp502
a(I1978312
I1978339
tp503
a(I2006273
I2006985
tp504
a(I2164154
I2164739
tp505
a(I2269022
I2269554
tp506
a(I2327501
I2327707
tp507
a(I2377024
I2377720
tp508
a(I2480303
I2480491
tp509
a(I2503916
I2504405
tp510
a(I2561688
I2561927
tp511
a(I2587549
I2588070
tp512
a(I2663080
I2664091
tp513
a(I2842122
I2842352
tp514
a(I2888937
I2889404
tp515
a(I2961176
I2961313
tp516
a(I2976900
I2977195
tp517
a(I3042574
I3042980
tp518
a(I3102908
I3103322
tp519
a(I3140964
I3141067
tp520
aa(lp521
(I152
I177
tp522
a(I18634
I19241
tp523
a(I86401
I86942
tp524
a(I135400
I135618
tp525
a(I198063
I198641
tp526
a(I405674
I405958
tp527
a(I461354
I461627
tp528
a(I503352
I503499
tp529
a(I531326
I531434
tp530
a(I549704
I550045
tp531
a(I658570
I659186
tp532
a(I747413
I747610
tp533
a(I777453
I777894
tp534
a(I824272
I824491
tp535
a(I856809
I857500
tp536
a(I978283
I978741
tp537
a(I1051095
I1051505
tp538
a(I1100770
I1101332
tp539
a(I1162102
I1162671
tp540
a(I1236599
I1237030
tp541
a(I1299138
I1299442
tp542
a(I1356508
I1356744
tp543
a(I1385020
I1385567
tp544
a(I1481730
I1482165
tp545
a(I1542140
I1542706
tp546
a(I1614339
I1614873
tp547
a(I1669714
I1669918
tp548
a(I1695857
I1696466
tp549
a(I1780539
I1780804
tp550
a(I1804303
I1804654
tp551
a(I1839579
I1839740
tp552
a(I1862213
I1862603
tp553
a(I1941545
I1941775
tp554
a(I1978339
I1978372
tp555
a(I2006985
I2007731
tp556
a(I2164739
I2165356
tp557
a(I2269554
I2270124
tp558
a(I2327707
I2327940
tp559
a(I2377720
I2378455
tp560
a(I2480491
I2480683
tp561
a(I2504405
I2504895
tp562
a(I2561927
I2562179
tp563
a(I2588070
I2588620
tp564
a(I2664091
I2665141
tp565
a(I2842352
I2842589
tp566
a(I2889404
I2889891
tp567
a(I2961313
I2961453
tp568
a(I2977195
I2977479
tp569
a(I3042980
I3043406
tp570
a(I3103322
I3103757
tp571
a(I3141067
I3141175
tp572
aa(lp573
(I177
I199
tp574
a(I19241
I19837
tp575
a(I86942
I87490
tp576
a(I135618
I135829
tp577
a(I198641
I199249
tp578
a(I405958
I406246
tp579
a(I461627
I461895
tp580
a(I503499
I503651
tp581
a(I531434
I531537
tp582
a(I550045
I550400
tp583
a(I659186
I659793
tp584
a(I747610
I747813
tp585
a(I777894
I778348
tp586
a(I824491
I824717
tp587
a(I857500
I858191
tp588
a(I978741
I979200
tp589
a(I1051505
I1051934
tp590
a(I1101332
I1101935
tp591
a(I1162671
I1163234
tp592
a(I1237030
I1237458
tp593
a(I1299442
I1299741
tp594
a(I1356744
I1356987
tp595
a(I1385567
I1386128
tp596
a(I1482165
I1482604
tp597
a(I1542706
I1543284
tp598
a(I1614873
I1615403
tp599
a(I1669918
I1670120
tp600
a(I1696466
I1697094
tp601
a(I1780804
I1781054
tp602
a(I1804654
I1805012
tp603
a(I1839740
I1839896
tp604
a(I1862603
I1863003
tp605
a(I1941775
I1942027
tp606
a(I1978372
I1978402
tp607
a(I2007731
I2008484
tp608
a(I2165356
I2165992
tp609
a(I2270124
I2270715
tp610
a(I2327940
I2328164
tp611
a(I2378455
I2379194
tp612
a(I2480683
I2480879
tp613
a(I2504895
I2505382
tp614
a(I2562179
I2562430
tp615
a(I2588620
I2589176
tp616
a(I2665141
I2666219
tp617
a(I2842589
I2842824
tp618
a(I2889891
I2890381
tp619
a(I2961453
I2961599
tp620
a(I2977479
I2977773
tp621
a(I3043406
I3043831
tp622
a(I3103757
I3104205
tp623
a(I3141175
I3141299
tp624
aa(lp625
(I199
I219
tp626
a(I19837
I20427
tp627
a(I87490
I88053
tp628
a(I135829
I136025
tp629
a(I199249
I199851
tp630
a(I406246
I406534
tp631
a(I461895
I462163
tp632
a(I503651
I503798
tp633
a(I531537
I531642
tp634
a(I550400
I550771
tp635
a(I659793
I660435
tp636
a(I747813
I748024
tp637
a(I778348
I778786
tp638
a(I824717
I824913
tp639
a(I858191
I858885
tp640
a(I979200
I979648
tp641
a(I1051934
I1052336
tp642
a(I1101935
I1102514
tp643
a(I1163234
I1163800
tp644
a(I1237458
I1237892
tp645
a(I1299741
I1300031
tp646
a(I1356987
I1357229
tp647
a(I1386128
I1386651
tp648
a(I1482604
I1483027
tp649
a(I1543284
I1543850
tp650
a(I1615403
I1615936
tp651
a(I1670120
I1670304
tp652
a(I1697094
I1697718
tp653
a(I1781054
I1781297
tp654
a(I1805012
I1805348
tp655
a(I1839896
I1840053
tp656
a(I1863003
I1863400
tp657
a(I1942027
I1942273
tp658
a(I1978402
I1978431
tp659
a(I2008484
I2009251
tp660
a(I2165992
I2166621
tp661
a(I2270715
I2271283
tp662
a(I2328164
I2328377
tp663
a(I2379194
I2379934
tp664
a(I2480879
I2481076
tp665
a(I2505382
I2505876
tp666
a(I2562430
I2562672
tp667
a(I2589176
I2589733
tp668
a(I2666219
I2667290
tp669
a(I2842824
I2843062
tp670
a(I2890381
I2890855
tp671
a(I2961599
I2961750
tp672
a(I2977773
I2978057
tp673
a(I3043831
I3044243
tp674
a(I3104205
I3104653
tp675
a(I3141299
I3141420
tp676
aa(lp677
(I219
I244
tp678
a(I20427
I21036
tp679
a(I88053
I88594
tp680
a(I136025
I136234
tp681
a(I199851
I200505
tp682
a(I406534
I406828
tp683
a(I462163
I462423
tp684
a(I503798
I503943
tp685
a(I531642
I531736
tp686
a(I550771
I551141
tp687
a(I660435
I661040
tp688
a(I748024
I748243
tp689
a(I778786
I779230
tp690
a(I824913
I825112
tp691
a(I858885
I859571
tp692
a(I979648
I980099
tp693
a(I1052336
I1052747
tp694
a(I1102514
I1103096
tp695
a(I1163800
I1164347
tp696
a(I1237892
I1238339
tp697
a(I1300031
I1300330
tp698
a(I1357229
I1357472
tp699
a(I1386651
I1387197
tp700
a(I1483027
I1483452
tp701
a(I1543850
I1544412
tp702
a(I1615936
I1616476
tp703
a(I1670304
I1670487
tp704
a(I1697718
I1698310
tp705
a(I1781297
I1781532
tp706
a(I1805348
I1805695
tp707
a(I1840053
I1840204
tp708
a(I1863400
I1863821
tp709
a(I1942273
I1942522
tp710
a(I1978431
I1978461
tp711
a(I2009251
I2010004
tp712
a(I2166621
I2167251
tp713
a(I2271283
I2271871
tp714
a(I2328377
I2328597
tp715
a(I2379934
I2380681
tp716
a(I2481076
I2481270
tp717
a(I2505876
I2506347
tp718
a(I2562672
I2562910
tp719
a(I2589733
I2590271
tp720
a(I2667290
I2668372
tp721
a(I2843062
I2843294
tp722
a(I2890855
I2891335
tp723
a(I2961750
I2961889
tp724
a(I2978057
I2978343
tp725
a(I3044243
I3044667
tp726
a(I3104653
I3105103
tp727
a(I3141420
I3141537
tp728
aa(lp729
(I244
I264
tp730
a(I21036
I21651
tp731
a(I88594
I89156
tp732
a(I136234
I136447
tp733
a(I200505
I201194
tp734
a(I406828
I407131
tp735
a(I462423
I462697
tp736
a(I503943
I504098
tp737
a(I531736
I531835
tp738
a(I551141
I551534
tp739
a(I661040
I661615
tp740
a(I748243
I748473
tp741
a(I779230
I779669
tp742
a(I825112
I825308
tp743
a(I859571
I860289
tp744
a(I980099
I980561
tp745
a(I1052747
I1053171
tp746
a(I1103096
I1103695
tp747
a(I1164347
I1164929
tp748
a(I1238339
I1238768
tp749
a(I1300330
I1300624
tp750
a(I1357472
I1357723
tp751
a(I1387197
I1387763
tp752
a(I1483452
I1483868
tp753
a(I1544412
I1544982
tp754
a(I1616476
I1617027
tp755
a(I1670487
I1670665
tp756
a(I1698310
I1698950
tp757
a(I1781532
I1781772
tp758
a(I1805695
I1806045
tp759
a(I1840204
I1840378
tp760
a(I1863821
I1864223
tp761
a(I1942522
I1942774
tp762
a(I1978461
I1978489
tp763
a(I2010004
I2010797
tp764
a(I2167251
I2167914
tp765
a(I2271871
I2272426
tp766
a(I2328597
I2328829
tp767
a(I2380681
I2381440
tp768
a(I2481270
I2481473
tp769
a(I2506347
I2506846
tp770
a(I2562910
I2563157
tp771
a(I2590271
I2590814
tp772
a(I2668372
I2669499
tp773
a(I2843294
I2843531
tp774
a(I2891335
I2891810
tp775
a(I2961889
I2962031
tp776
a(I2978343
I2978627
tp777
a(I3044667
I3045087
tp778
a(I3105103
I3105554
tp779
a(I3141537
I3141650
tp780
aa(lp781
(I264
I292
tp782
a(I21651
I22252
tp783
a(I89156
I89700
tp784
a(I136447
I136685
tp785
a(I201194
I201896
tp786
a(I407131
I407431
tp787
a(I462697
I462958
tp788
a(I504098
I504248
tp789
a(I531835
I531929
tp790
a(I551534
I551946
tp791
a(I661615
I662193
tp792
a(I748473
I748705
tp793
a(I779669
I780089
tp794
a(I825308
I825497
tp795
a(I860289
I861007
tp796
a(I980561
I981016
tp797
a(I1053171
I1053564
tp798
a(I1103695
I1104265
tp799
a(I1164929
I1165490
tp800
a(I1238768
I1239197
tp801
a(I1300624
I1300927
tp802
a(I1357723
I1357960
tp803
a(I1387763
I1388319
tp804
a(I1483868
I1484278
tp805
a(I1544982
I1545530
tp806
a(I1617027
I1617577
tp807
a(I1670665
I1670833
tp808
a(I1698950
I1699579
tp809
a(I1781772
I1781992
tp810
a(I1806045
I1806376
tp811
a(I1840378
I1840523
tp812
a(I1864223
I1864627
tp813
a(I1942774
I1943037
tp814
a(I1978489
I1978518
tp815
a(I2010797
I2011570
tp816
a(I2167914
I2168536
tp817
a(I2272426
I2272994
tp818
a(I2328829
I2329051
tp819
a(I2381440
I2382176
tp820
a(I2481473
I2481672
tp821
a(I2506846
I2507316
tp822
a(I2563157
I2563388
tp823
a(I2590814
I2591352
tp824
a(I2669499
I2670589
tp825
a(I2843531
I2843755
tp826
a(I2891810
I2892296
tp827
a(I2962031
I2962166
tp828
a(I2978627
I2978916
tp829
a(I3045087
I3045494
tp830
a(I3105554
I3105999
tp831
a(I3141650
I3141760
tp832
aa(lp833
(I292
I317
tp834
a(I22252
I22858
tp835
a(I89700
I90235
tp836
a(I136685
I136908
tp837
a(I201896
I202581
tp838
a(I407431
I407712
tp839
a(I462958
I463222
tp840
a(I504248
I504389
tp841
a(I531929
I532014
tp842
a(I551946
I552371
tp843
a(I662193
I662757
tp844
a(I748705
I748929
tp845
a(I780089
I780490
tp846
a(I825497
I825679
tp847
a(I861007
I861720
tp848
a(I981016
I981470
tp849
a(I1053564
I1053944
tp850
a(I1104265
I1104803
tp851
a(I1165490
I1166034
tp852
a(I1239197
I1239619
tp853
a(I1300927
I1301225
tp854
a(I1357960
I1358196
tp855
a(I1388319
I1388873
tp856
a(I1484278
I1484698
tp857
a(I1545530
I1546070
tp858
a(I1617577
I1618139
tp859
a(I1670833
I1671004
tp860
a(I1699579
I1700175
tp861
a(I1781992
I1782219
tp862
a(I1806376
I1806710
tp863
a(I1840523
I1840668
tp864
a(I1864627
I1865043
tp865
a(I1943037
I1943276
tp866
a(I1978518
I1978544
tp867
a(I2011570
I2012359
tp868
a(I2168536
I2169162
tp869
a(I2272994
I2273546
tp870
a(I2329051
I2329268
tp871
a(I2382176
I2382926
tp872
a(I2481672
I2481856
tp873
a(I2507316
I2507753
tp874
a(I2563388
I2563617
tp875
a(I2591352
I2591895
tp876
a(I2670589
I2671655
tp877
a(I2843755
I2843984
tp878
a(I2892296
I2892763
tp879
a(I2962166
I2962302
tp880
a(I2978916
I2979196
tp881
a(I3045494
I3045903
tp882
a(I3105999
I3106445
tp883
a(I3141760
I3141865
tp884
aa(lp885
(I317
I343
tp886
a(I22858
I23469
tp887
a(I90235
I90756
tp888
a(I136908
I137132
tp889
a(I202581
I203261
tp890
a(I407712
I407998
tp891
a(I463222
I463479
tp892
a(I504389
I504538
tp893
a(I532014
I532115
tp894
a(I552371
I552779
tp895
a(I662757
I663329
tp896
a(I748929
I749165
tp897
a(I780490
I780908
tp898
a(I825679
I825872
tp899
a(I861720
I862430
tp900
a(I981470
I981901
tp901
a(I1053944
I1054340
tp902
a(I1104803
I1105368
tp903
a(I1166034
I1166603
tp904
a(I1239619
I1240038
tp905
a(I1301225
I1301519
tp906
a(I1358196
I1358418
tp907
a(I1388873
I1389441
tp908
a(I1484698
I1485095
tp909
a(I1546070
I1546612
tp910
a(I1618139
I1618670
tp911
a(I1671004
I1671174
tp912
a(I1700175
I1700777
tp913
a(I1782219
I1782456
tp914
a(I1806710
I1807036
tp915
a(I1840668
I1840807
tp916
a(I1865043
I1865462
tp917
a(I1943276
I1943525
tp918
a(I1978544
I1978575
tp919
a(I2012359
I2013168
tp920
a(I2169162
I2169793
tp921
a(I2273546
I2274099
tp922
a(I2329268
I2329477
tp923
a(I2382926
I2383671
tp924
a(I2481856
I2482039
tp925
a(I2507753
I2508204
tp926
a(I2563617
I2563827
tp927
a(I2591895
I2592426
tp928
a(I2671655
I2672744
tp929
a(I2843984
I2844212
tp930
a(I2892763
I2893231
tp931
a(I2962302
I2962430
tp932
a(I2979196
I2979472
tp933
a(I3045903
I3046316
tp934
a(I3106445
I3106910
tp935
a(I3141865
I3141970
tp936
aa(lp937
(I343
I370
tp938
a(I23469
I24049
tp939
a(I90756
I91245
tp940
a(I137132
I137357
tp941
a(I203261
I203949
tp942
a(I407998
I408277
tp943
a(I463479
I463736
tp944
a(I504538
I504686
tp945
a(I532115
I532204
tp946
a(I552779
I553165
tp947
a(I663329
I663871
tp948
a(I749165
I749376
tp949
a(I780908
I781286
tp950
a(I825872
I826050
tp951
a(I862430
I863139
tp952
a(I981901
I982336
tp953
a(I1054340
I1054709
tp954
a(I1105368
I1105902
tp955
a(I1166603
I1167138
tp956
a(I1240038
I1240436
tp957
a(I1301519
I1301820
tp958
a(I1358418
I1358656
tp959
a(I1389441
I1390021
tp960
a(I1485095
I1485491
tp961
a(I1546612
I1547138
tp962
a(I1618670
I1619215
tp963
a(I1671174
I1671349
tp964
a(I1700777
I1701367
tp965
a(I1782456
I1782682
tp966
a(I1807036
I1807365
tp967
a(I1840807
I1840952
tp968
a(I1865462
I1865873
tp969
a(I1943525
I1943779
tp970
a(I1978575
I1978600
tp971
a(I2013168
I2013970
tp972
a(I2169793
I2170413
tp973
a(I2274099
I2274632
tp974
a(I2329477
I2329703
tp975
a(I2383671
I2384375
tp976
a(I2482039
I2482223
tp977
a(I2508204
I2508657
tp978
a(I2563827
I2564054
tp979
a(I2592426
I2592941
tp980
a(I2672744
I2673816
tp981
a(I2844212
I2844429
tp982
a(I2893231
I2893687
tp983
a(I2962430
I2962568
tp984
a(I2979472
I2979753
tp985
a(I3046316
I3046730
tp986
a(I3106910
I3107335
tp987
a(I3141970
I3142069
tp988
aa(lp989
(I370
I393
tp990
a(I24049
I24607
tp991
a(I91245
I91741
tp992
a(I137357
I137604
tp993
a(I203949
I204615
tp994
a(I408277
I408557
tp995
a(I463736
I463989
tp996
a(I504686
I504832
tp997
a(I532204
I532291
tp998
a(I553165
I553548
tp999
a(I663871
I664399
tp1000
a(I749376
I749595
tp1001
a(I781286
I781664
tp1002
a(I826050
I826232
tp1003
a(I863139
I863829
tp1004
a(I982336
I982764
tp1005
a(I1054709
I1055071
tp1006
a(I1105902
I1106428
tp1007
a(I1167138
I1167673
tp1008
a(I1240436
I1240823
tp1009
a(I1301820
I1302106
tp1010
a(I1358656
I1358882
tp1011
a(I1390021
I1390575
tp1012
a(I1485491
I1485873
tp1013
a(I1547138
I1547661
tp1014
a(I1619215
I1619729
tp1015
a(I1671349
I1671524
tp1016
a(I1701367
I1701948
tp1017
a(I1782682
I1782902
tp1018
a(I1807365
I1807658
tp1019
a(I1840952
I1841093
tp1020
a(I1865873
I1866277
tp1021
a(I1943779
I1944030
tp1022
a(I1978600
I1978628
tp1023
a(I2013970
I2014750
tp1024
a(I2170413
I2171034
tp1025
a(I2274632
I2275151
tp1026
a(I2329703
I2329914
tp1027
a(I2384375
I2385085
tp1028
a(I2482223
I2482398
tp1029
a(I2508657
I2509085
tp1030
a(I2564054
I2564273
tp1031
a(I2592941
I2593433
tp1032
a(I2673816
I2674844
tp1033
a(I2844429
I2844645
tp1034
a(I2893687
I2894134
tp1035
a(I2962568
I2962703
tp1036
a(I2979753
I2980016
tp1037
a(I3046730
I3047144
tp1038
a(I3107335
I3107759
tp1039
a(I3142069
I3142174
tp1040
aa(lp1041
(I393
I422
tp1042
a(I24607
I25156
tp1043
a(I91741
I92234
tp1044
a(I137604
I137864
tp1045
a(I204615
I205289
tp1046
a(I408557
I408842
tp1047
a(I463989
I464240
tp1048
a(I504832
I504967
tp1049
a(I532291
I532383
tp1050
a(I553548
I553916
tp1051
a(I664399
I664934
tp1052
a(I749595
I749804
tp1053
a(I781664
I782062
tp1054
a(I826232
I826427
tp1055
a(I863829
I864518
tp1056
a(I982764
I983191
tp1057
a(I1055071
I1055435
tp1058
a(I1106428
I1106954
tp1059
a(I1167673
I1168204
tp1060
a(I1240823
I1241207
tp1061
a(I1302106
I1302394
tp1062
a(I1358882
I1359109
tp1063
a(I1390575
I1391124
tp1064
a(I1485873
I1486253
tp1065
a(I1547661
I1548163
tp1066
a(I1619729
I1620257
tp1067
a(I1671524
I1671695
tp1068
a(I1701948
I1702506
tp1069
a(I1782902
I1783130
tp1070
a(I1807658
I1807960
tp1071
a(I1841093
I1841230
tp1072
a(I1866277
I1866685
tp1073
a(I1944030
I1944285
tp1074
a(I1978628
I1978661
tp1075
a(I2014750
I2015535
tp1076
a(I2171034
I2171640
tp1077
a(I2275151
I2275670
tp1078
a(I2329914
I2330104
tp1079
a(I2385085
I2385777
tp1080
a(I2482398
I2482572
tp1081
a(I2509085
I2509520
tp1082
a(I2564273
I2564495
tp1083
a(I2593433
I2593944
tp1084
a(I2674844
I2675859
tp1085
a(I2844645
I2844869
tp1086
a(I2894134
I2894574
tp1087
a(I2962703
I2962835
tp1088
a(I2980016
I2980310
tp1089
a(I3047144
I3047532
tp1090
a(I3107759
I3108192
tp1091
a(I3142174
I3142281
tp1092
aa(lp1093
(I422
I440
tp1094
a(I25156
I25694
tp1095
a(I92234
I92714
tp1096
a(I137864
I138097
tp1097
a(I205289
I205912
tp1098
a(I408842
I409103
tp1099
a(I464240
I464477
tp1100
a(I504967
I505114
tp1101
a(I532383
I532469
tp1102
a(I553916
I554270
tp1103
a(I664934
I665473
tp1104
a(I749804
I750009
tp1105
a(I782062
I782437
tp1106
a(I826427
I826618
tp1107
a(I864518
I865163
tp1108
a(I983191
I983604
tp1109
a(I1055435
I1055802
tp1110
a(I1106954
I1107472
tp1111
a(I1168204
I1168717
tp1112
a(I1241207
I1241575
tp1113
a(I1302394
I1302684
tp1114
a(I1359109
I1359339
tp1115
a(I1391124
I1391644
tp1116
a(I1486253
I1486645
tp1117
a(I1548163
I1548654
tp1118
a(I1620257
I1620750
tp1119
a(I1671695
I1671858
tp1120
a(I1702506
I1703064
tp1121
a(I1783130
I1783351
tp1122
a(I1807960
I1808258
tp1123
a(I1841230
I1841363
tp1124
a(I1866685
I1867076
tp1125
a(I1944285
I1944537
tp1126
a(I1978661
I1978686
tp1127
a(I2015535
I2016291
tp1128
a(I2171640
I2172204
tp1129
a(I2275670
I2276185
tp1130
a(I2330104
I2330305
tp1131
a(I2385777
I2386424
tp1132
a(I2482572
I2482737
tp1133
a(I2509520
I2509926
tp1134
a(I2564495
I2564708
tp1135
a(I2593944
I2594421
tp1136
a(I2675859
I2676851
tp1137
a(I2844869
I2845076
tp1138
a(I2894574
I2895003
tp1139
a(I2962835
I2962967
tp1140
a(I2980310
I2980564
tp1141
a(I3047532
I3047935
tp1142
a(I3108192
I3108590
tp1143
a(I3142281
I3142392
tp1144
aa(lp1145
(I440
I468
tp1146
a(I25694
I26255
tp1147
a(I92714
I93200
tp1148
a(I138097
I138318
tp1149
a(I205912
I206536
tp1150
a(I409103
I409371
tp1151
a(I464477
I464712
tp1152
a(I505114
I505266
tp1153
a(I532469
I532559
tp1154
a(I554270
I554644
tp1155
a(I665473
I666012
tp1156
a(I750009
I750198
tp1157
a(I782437
I782804
tp1158
a(I826618
I826798
tp1159
a(I865163
I865807
tp1160
a(I983604
I984017
tp1161
a(I1055802
I1056146
tp1162
a(I1107472
I1107993
tp1163
a(I1168717
I1169242
tp1164
a(I1241575
I1241947
tp1165
a(I1302684
I1302969
tp1166
a(I1359339
I1359556
tp1167
a(I1391644
I1392163
tp1168
a(I1486645
I1487028
tp1169
a(I1548654
I1549165
tp1170
a(I1620750
I1621267
tp1171
a(I1671858
I1672024
tp1172
a(I1703064
I1703634
tp1173
a(I1783351
I1783568
tp1174
a(I1808258
I1808561
tp1175
a(I1841363
I1841496
tp1176
a(I1867076
I1867459
tp1177
a(I1944537
I1944803
tp1178
a(I1978686
I1978720
tp1179
a(I2016291
I2017047
tp1180
a(I2172204
I2172775
tp1181
a(I2276185
I2276705
tp1182
a(I2330305
I2330510
tp1183
a(I2386424
I2387084
tp1184
a(I2482737
I2482898
tp1185
a(I2509926
I2510377
tp1186
a(I2564708
I2564922
tp1187
a(I2594421
I2594915
tp1188
a(I2676851
I2677835
tp1189
a(I2845076
I2845283
tp1190
a(I2895003
I2895442
tp1191
a(I2962967
I2963092
tp1192
a(I2980564
I2980831
tp1193
a(I3047935
I3048329
tp1194
a(I3108590
I3108993
tp1195
a(I3142392
I3142493
tp1196
aa(lp1197
(I468
I501
tp1198
a(I26255
I26788
tp1199
a(I93200
I93681
tp1200
a(I138318
I138533
tp1201
a(I206536
I207157
tp1202
a(I409371
I409641
tp1203
a(I464712
I464939
tp1204
a(I505266
I505419
tp1205
a(I532559
I532642
tp1206
a(I554644
I555014
tp1207
a(I666012
I666538
tp1208
a(I750198
I750393
tp1209
a(I782804
I783157
tp1210
a(I826798
I826983
tp1211
a(I865807
I866431
tp1212
a(I984017
I984412
tp1213
a(I1056146
I1056500
tp1214
a(I1107993
I1108516
tp1215
a(I1169242
I1169736
tp1216
a(I1241947
I1242293
tp1217
a(I1302969
I1303251
tp1218
a(I1359556
I1359780
tp1219
a(I1392163
I1392676
tp1220
a(I1487028
I1487391
tp1221
a(I1549165
I1549660
tp1222
a(I1621267
I1621762
tp1223
a(I1672024
I1672187
tp1224
a(I1703634
I1704198
tp1225
a(I1783568
I1783786
tp1226
a(I1808561
I1808844
tp1227
a(I1841496
I1841626
tp1228
a(I1867459
I1867818
tp1229
a(I1944803
I1945056
tp1230
a(I1978720
I1978748
tp1231
a(I2017047
I2017800
tp1232
a(I2172775
I2173327
tp1233
a(I2276705
I2277221
tp1234
a(I2330510
I2330706
tp1235
a(I2387084
I2387712
tp1236
a(I2482898
I2483054
tp1237
a(I2510377
I2510812
tp1238
a(I2564922
I2565133
tp1239
a(I2594915
I2595406
tp1240
a(I2677835
I2678814
tp1241
a(I2845283
I2845508
tp1242
a(I2895442
I2895871
tp1243
a(I2963092
I2963214
tp1244
a(I2980831
I2981098
tp1245
a(I3048329
I3048692
tp1246
a(I3108993
I3109384
tp1247
a(I3142493
I3142591
tp1248
aa(lp1249
(I501
I526
tp1250
a(I26788
I27330
tp1251
a(I93681
I94169
tp1252
a(I138533
I138756
tp1253
a(I207157
I207787
tp1254
a(I409641
I409918
tp1255
a(I464939
I465161
tp1256
a(I505419
I505584
tp1257
a(I532642
I532727
tp1258
a(I555014
I555375
tp1259
a(I666538
I667072
tp1260
a(I750393
I750574
tp1261
a(I783157
I783530
tp1262
a(I826983
I827162
tp1263
a(I866431
I867050
tp1264
a(I984412
I984801
tp1265
a(I1056500
I1056847
tp1266
a(I1108516
I1109020
tp1267
a(I1169736
I1170273
tp1268
a(I1242293
I1242652
tp1269
a(I1303251
I1303523
tp1270
a(I1359780
I1360009
tp1271
a(I1392676
I1393190
tp1272
a(I1487391
I1487779
tp1273
a(I1549660
I1550149
tp1274
a(I1621762
I1622276
tp1275
a(I1672187
I1672359
tp1276
a(I1704198
I1704763
tp1277
a(I1783786
I1784011
tp1278
a(I1808844
I1809140
tp1279
a(I1841626
I1841754
tp1280
a(I1867818
I1868187
tp1281
a(I1945056
I1945326
tp1282
a(I1978748
I1978780
tp1283
a(I2017800
I2018529
tp1284
a(I2173327
I2173883
tp1285
a(I2277221
I2277742
tp1286
a(I2330706
I2330911
tp1287
a(I2387712
I2388355
tp1288
a(I2483054
I2483204
tp1289
a(I2510812
I2511252
tp1290
a(I2565133
I2565350
tp1291
a(I2595406
I2595896
tp1292
a(I2678814
I2679806
tp1293
a(I2845508
I2845714
tp1294
a(I2895871
I2896313
tp1295
a(I2963214
I2963335
tp1296
a(I2981098
I2981364
tp1297
a(I3048692
I3049079
tp1298
a(I3109384
I3109805
tp1299
a(I3142591
I3142698
tp1300
aa(lp1301
(I526
I554
tp1302
a(I27330
I27874
tp1303
a(I94169
I94671
tp1304
a(I138756
I138983
tp1305
a(I207787
I208422
tp1306
a(I409918
I410186
tp1307
a(I465161
I465406
tp1308
a(I505584
I505745
tp1309
a(I532727
I532818
tp1310
a(I555375
I555747
tp1311
a(I667072
I667609
tp1312
a(I750574
I750744
tp1313
a(I783530
I783898
tp1314
a(I827162
I827350
tp1315
a(I867050
I867695
tp1316
a(I984801
I985205
tp1317
a(I1056847
I1057200
tp1318
a(I1109020
I1109538
tp1319
a(I1170273
I1170785
tp1320
a(I1242652
I1243014
tp1321
a(I1303523
I1303810
tp1322
a(I1360009
I1360234
tp1323
a(I1393190
I1393706
tp1324
a(I1487779
I1488141
tp1325
a(I1550149
I1550642
tp1326
a(I1622276
I1622811
tp1327
a(I1672359
I1672524
tp1328
a(I1704763
I1705316
tp1329
a(I1784011
I1784234
tp1330
a(I1809140
I1809423
tp1331
a(I1841754
I1841893
tp1332
a(I1868187
I1868549
tp1333
a(I1945326
I1945588
tp1334
a(I1978780
I1978811
tp1335
a(I2018529
I2019272
tp1336
a(I2173883
I2174449
tp1337
a(I2277742
I2278256
tp1338
a(I2330911
I2331116
tp1339
a(I2388355
I2389011
tp1340
a(I2483204
I2483354
tp1341
a(I2511252
I2511683
tp1342
a(I2565350
I2565561
tp1343
a(I2595896
I2596392
tp1344
a(I2679806
I2680796
tp1345
a(I2845714
I2845950
tp1346
a(I2896313
I2896730
tp1347
a(I2963335
I2963458
tp1348
a(I2981364
I2981629
tp1349
a(I3049079
I3049448
tp1350
a(I3109805
I3110214
tp1351
a(I3142698
I3142801
tp1352
aa(lp1353
(I554
I587
tp1354
a(I27874
I28409
tp1355
a(I94671
I95139
tp1356
a(I138983
I139209
tp1357
a(I208422
I209083
tp1358
a(I410186
I410456
tp1359
a(I465406
I465643
tp1360
a(I505745
I505919
tp1361
a(I532818
I532906
tp1362
a(I555747
I556130
tp1363
a(I667609
I668136
tp1364
a(I750744
I750909
tp1365
a(I783898
I784282
tp1366
a(I827350
I827535
tp1367
a(I867695
I868315
tp1368
a(I985205
I985615
tp1369
a(I1057200
I1057535
tp1370
a(I1109538
I1110025
tp1371
a(I1170785
I1171291
tp1372
a(I1243014
I1243375
tp1373
a(I1303810
I1304096
tp1374
a(I1360234
I1360462
tp1375
a(I1393706
I1394232
tp1376
a(I1488141
I1488503
tp1377
a(I1550642
I1551126
tp1378
a(I1622811
I1623310
tp1379
a(I1672524
I1672697
tp1380
a(I1705316
I1705873
tp1381
a(I1784234
I1784445
tp1382
a(I1809423
I1809702
tp1383
a(I1841893
I1842023
tp1384
a(I1868549
I1868925
tp1385
a(I1945588
I1945844
tp1386
a(I1978811
I1978835
tp1387
a(I2019272
I2020011
tp1388
a(I2174449
I2175008
tp1389
a(I2278256
I2278745
tp1390
a(I2331116
I2331321
tp1391
a(I2389011
I2389674
tp1392
a(I2483354
I2483507
tp1393
a(I2511683
I2512122
tp1394
a(I2565561
I2565769
tp1395
a(I2596392
I2596880
tp1396
a(I2680796
I2681779
tp1397
a(I2845950
I2846179
tp1398
a(I2896730
I2897150
tp1399
a(I2963458
I2963580
tp1400
a(I2981629
I2981900
tp1401
a(I3049448
I3049826
tp1402
a(I3110214
I3110622
tp1403
a(I3142801
I3142907
tp1404
aa(lp1405
(I587
I620
tp1406
a(I28409
I28942
tp1407
a(I95139
I95591
tp1408
a(I139209
I139456
tp1409
a(I209083
I209788
tp1410
a(I410456
I410737
tp1411
a(I465643
I465880
tp1412
a(I505919
I506101
tp1413
a(I532906
I533005
tp1414
a(I556130
I556513
tp1415
a(I668136
I668678
tp1416
a(I750909
I751088
tp1417
a(I784282
I784671
tp1418
a(I827535
I827729
tp1419
a(I868315
I868959
tp1420
a(I985615
I986054
tp1421
a(I1057535
I1057871
tp1422
a(I1110025
I1110528
tp1423
a(I1171291
I1171808
tp1424
a(I1243375
I1243732
tp1425
a(I1304096
I1304392
tp1426
a(I1360462
I1360687
tp1427
a(I1394232
I1394771
tp1428
a(I1488503
I1488890
tp1429
a(I1551126
I1551608
tp1430
a(I1623310
I1623825
tp1431
a(I1672697
I1672886
tp1432
a(I1705873
I1706442
tp1433
a(I1784445
I1784646
tp1434
a(I1809702
I1809977
tp1435
a(I1842023
I1842163
tp1436
a(I1868925
I1869314
tp1437
a(I1945844
I1946129
tp1438
a(I1978835
I1978876
tp1439
a(I2020011
I2020752
tp1440
a(I2175008
I2175599
tp1441
a(I2278745
I2279238
tp1442
a(I2331321
I2331548
tp1443
a(I2389674
I2390344
tp1444
a(I2483507
I2483663
tp1445
a(I2512122
I2512564
tp1446
a(I2565769
I2565958
tp1447
a(I2596880
I2597370
tp1448
a(I2681779
I2682773
tp1449
a(I2846179
I2846398
tp1450
a(I2897150
I2897584
tp1451
a(I2963580
I2963709
tp1452
a(I2981900
I2982194
tp1453
a(I3049826
I3050191
tp1454
a(I3110622
I3111045
tp1455
a(I3142907
I3143014
tp1456
aa(lp1457
(I620
I654
tp1458
a(I28942
I29490
tp1459
a(I95591
I96078
tp1460
a(I139456
I139712
tp1461
a(I209788
I210506
tp1462
a(I410737
I411033
tp1463
a(I465880
I466125
tp1464
a(I506101
I506286
tp1465
a(I533005
I533103
tp1466
a(I556513
I556907
tp1467
a(I668678
I669237
tp1468
a(I751088
I751271
tp1469
a(I784671
I785038
tp1470
a(I827729
I827940
tp1471
a(I868959
I869636
tp1472
a(I986054
I986495
tp1473
a(I1057871
I1058209
tp1474
a(I1110528
I1111059
tp1475
a(I1171808
I1172342
tp1476
a(I1243732
I1244110
tp1477
a(I1304392
I1304696
tp1478
a(I1360687
I1360919
tp1479
a(I1394771
I1395323
tp1480
a(I1488890
I1489286
tp1481
a(I1551608
I1552112
tp1482
a(I1623825
I1624332
tp1483
a(I1672886
I1673072
tp1484
a(I1706442
I1707021
tp1485
a(I1784646
I1784869
tp1486
a(I1809977
I1810238
tp1487
a(I1842163
I1842304
tp1488
a(I1869314
I1869709
tp1489
a(I1946129
I1946410
tp1490
a(I1978876
I1978921
tp1491
a(I2020752
I2021520
tp1492
a(I2175599
I2176213
tp1493
a(I2279238
I2279741
tp1494
a(I2331548
I2331772
tp1495
a(I2390344
I2391025
tp1496
a(I2483663
I2483825
tp1497
a(I2512564
I2513009
tp1498
a(I2565958
I2566161
tp1499
a(I2597370
I2597860
tp1500
a(I2682773
I2683767
tp1501
a(I2846398
I2846640
tp1502
a(I2897584
I2898028
tp1503
a(I2963709
I2963835
tp1504
a(I2982194
I2982491
tp1505
a(I3050191
I3050577
tp1506
a(I3111045
I3111462
tp1507
a(I3143014
I3143116
tp1508
aa(lp1509
(I654
I688
tp1510
a(I29490
I30012
tp1511
a(I96078
I96549
tp1512
a(I139712
I139952
tp1513
a(I210506
I211257
tp1514
a(I411033
I411325
tp1515
a(I466125
I466375
tp1516
a(I506286
I506487
tp1517
a(I533103
I533198
tp1518
a(I556907
I557311
tp1519
a(I669237
I669808
tp1520
a(I751271
I751463
tp1521
a(I785038
I785409
tp1522
a(I827940
I828136
tp1523
a(I869636
I870291
tp1524
a(I986495
I986928
tp1525
a(I1058209
I1058539
tp1526
a(I1111059
I1111585
tp1527
a(I1172342
I1172874
tp1528
a(I1244110
I1244487
tp1529
a(I1304696
I1304993
tp1530
a(I1360919
I1361148
tp1531
a(I1395323
I1395862
tp1532
a(I1489286
I1489686
tp1533
a(I1552112
I1552611
tp1534
a(I1624332
I1624836
tp1535
a(I1673072
I1673259
tp1536
a(I1707021
I1707589
tp1537
a(I1784869
I1785078
tp1538
a(I1810238
I1810502
tp1539
a(I1842304
I1842438
tp1540
a(I1869709
I1870127
tp1541
a(I1946410
I1946679
tp1542
a(I1978921
I1978971
tp1543
a(I2021520
I2022291
tp1544
a(I2176213
I2176814
tp1545
a(I2279741
I2280241
tp1546
a(I2331772
I2332001
tp1547
a(I2391025
I2391701
tp1548
a(I2483825
I2483974
tp1549
a(I2513009
I2513459
tp1550
a(I2566161
I2566358
tp1551
a(I2597860
I2598356
tp1552
a(I2683767
I2684736
tp1553
a(I2846640
I2846862
tp1554
a(I2898028
I2898457
tp1555
a(I2963835
I2963960
tp1556
a(I2982491
I2982784
tp1557
a(I3050577
I3050955
tp1558
a(I3111462
I3111878
tp1559
a(I3143116
I3143222
tp1560
aa(lp1561
(I688
I732
tp1562
a(I30012
I30559
tp1563
a(I96549
I97028
tp1564
a(I139952
I140206
tp1565
a(I211257
I212035
tp1566
a(I411325
I411619
tp1567
a(I466375
I466632
tp1568
a(I506487
I506700
tp1569
a(I533198
I533293
tp1570
a(I557311
I557724
tp1571
a(I669808
I670367
tp1572
a(I751463
I751651
tp1573
a(I785409
I785795
tp1574
a(I828136
I828343
tp1575
a(I870291
I870989
tp1576
a(I986928
I987376
tp1577
a(I1058539
I1058864
tp1578
a(I1111585
I1112106
tp1579
a(I1172874
I1173407
tp1580
a(I1244487
I1244854
tp1581
a(I1304993
I1305306
tp1582
a(I1361148
I1361366
tp1583
a(I1395862
I1396424
tp1584
a(I1489686
I1490097
tp1585
a(I1552611
I1553094
tp1586
a(I1624836
I1625349
tp1587
a(I1673259
I1673447
tp1588
a(I1707589
I1708139
tp1589
a(I1785078
I1785283
tp1590
a(I1810502
I1810759
tp1591
a(I1842438
I1842578
tp1592
a(I1870127
I1870536
tp1593
a(I1946679
I1946972
tp1594
a(I1978971
I1979020
tp1595
a(I2022291
I2023079
tp1596
a(I2176814
I2177422
tp1597
a(I2280241
I2280748
tp1598
a(I2332001
I2332244
tp1599
a(I2391701
I2392400
tp1600
a(I2483974
I2484137
tp1601
a(I2513459
I2513920
tp1602
a(I2566358
I2566556
tp1603
a(I2598356
I2598872
tp1604
a(I2684736
I2685738
tp1605
a(I2846862
I2847099
tp1606
a(I2898457
I2898898
tp1607
a(I2963960
I2964081
tp1608
a(I2982784
I2983106
tp1609
a(I3050955
I3051344
tp1610
a(I3111878
I3112288
tp1611
a(I3143222
I3143332
tp1612
aa(lp1613
(I732
I777
tp1614
a(I30559
I31088
tp1615
a(I97028
I97505
tp1616
a(I140206
I140466
tp1617
a(I212035
I212855
tp1618
a(I411619
I411913
tp1619
a(I466632
I466912
tp1620
a(I506700
I506940
tp1621
a(I533293
I533409
tp1622
a(I557724
I558134
tp1623
a(I670367
I670925
tp1624
a(I751651
I751850
tp1625
a(I785795
I786182
tp1626
a(I828343
I828548
tp1627
a(I870989
I871691
tp1628
a(I987376
I987834
tp1629
a(I1058864
I1059197
tp1630
a(I1112106
I1112635
tp1631
a(I1173407
I1173958
tp1632
a(I1244854
I1245252
tp1633
a(I1305306
I1305630
tp1634
a(I1361366
I1361582
tp1635
a(I1396424
I1397016
tp1636
a(I1490097
I1490499
tp1637
a(I1553094
I1553597
tp1638
a(I1625349
I1625857
tp1639
a(I1673447
I1673632
tp1640
a(I1708139
I1708720
tp1641
a(I1785283
I1785489
tp1642
a(I1810759
I1811019
tp1643
a(I1842578
I1842714
tp1644
a(I1870536
I1870971
tp1645
a(I1946972
I1947245
tp1646
a(I1979020
I1979068
tp1647
a(I2023079
I2023917
tp1648
a(I2177422
I2178077
tp1649
a(I2280748
I2281239
tp1650
a(I2332244
I2332491
tp1651
a(I2392400
I2393114
tp1652
a(I2484137
I2484310
tp1653
a(I2513920
I2514396
tp1654
a(I2566556
I2566742
tp1655
a(I2598872
I2599367
tp1656
a(I2685738
I2686757
tp1657
a(I2847099
I2847336
tp1658
a(I2898898
I2899366
tp1659
a(I2964081
I2964205
tp1660
a(I2983106
I2983443
tp1661
a(I3051344
I3051729
tp1662
a(I3112288
I3112693
tp1663
a(I3143332
I3143433
tp1664
aa(lp1665
(I777
I824
tp1666
a(I31088
I31650
tp1667
a(I97505
I97981
tp1668
a(I140466
I140743
tp1669
a(I212855
I213767
tp1670
a(I411913
I412218
tp1671
a(I466912
I467238
tp1672
a(I506940
I507190
tp1673
a(I533409
I533524
tp1674
a(I558134
I558589
tp1675
a(I670925
I671483
tp1676
a(I751850
I752057
tp1677
a(I786182
I786583
tp1678
a(I828548
I828739
tp1679
a(I871691
I872491
tp1680
a(I987834
I988335
tp1681
a(I1059197
I1059550
tp1682
a(I1112635
I1113166
tp1683
a(I1173958
I1174526
tp1684
a(I1245252
I1245687
tp1685
a(I1305630
I1305987
tp1686
a(I1361582
I1361819
tp1687
a(I1397016
I1397671
tp1688
a(I1490499
I1490918
tp1689
a(I1553597
I1554122
tp1690
a(I1625857
I1626385
tp1691
a(I1673632
I1673825
tp1692
a(I1708720
I1709323
tp1693
a(I1785489
I1785704
tp1694
a(I1811019
I1811293
tp1695
a(I1842714
I1842868
tp1696
a(I1870971
I1871446
tp1697
a(I1947245
I1947529
tp1698
a(I1979068
I1979134
tp1699
a(I2023917
I2024830
tp1700
a(I2178077
I2178770
tp1701
a(I2281239
I2281729
tp1702
a(I2332491
I2332773
tp1703
a(I2393114
I2393888
tp1704
a(I2484310
I2484493
tp1705
a(I2514396
I2514867
tp1706
a(I2566742
I2566936
tp1707
a(I2599367
I2599894
tp1708
a(I2686757
I2687811
tp1709
a(I2847336
I2847589
tp1710
a(I2899366
I2899846
tp1711
a(I2964205
I2964330
tp1712
a(I2983443
I2983829
tp1713
a(I3051729
I3052143
tp1714
a(I3112693
I3113112
tp1715
a(I3143433
I3143543
tp1716
aa(lp1717
(I824
I869
tp1718
a(I31650
I32215
tp1719
a(I97981
I98459
tp1720
a(I140743
I141031
tp1721
a(I213767
I214771
tp1722
a(I412218
I412525
tp1723
a(I467238
I467554
tp1724
a(I507190
I507476
tp1725
a(I533524
I533651
tp1726
a(I558589
I559071
tp1727
a(I671483
I672091
tp1728
a(I752057
I752284
tp1729
a(I786583
I786971
tp1730
a(I828739
I828933
tp1731
a(I872491
I873286
tp1732
a(I988335
I988830
tp1733
a(I1059550
I1059912
tp1734
a(I1113166
I1113693
tp1735
a(I1174526
I1175117
tp1736
a(I1245687
I1246121
tp1737
a(I1305987
I1306355
tp1738
a(I1361819
I1362050
tp1739
a(I1397671
I1398329
tp1740
a(I1490918
I1491321
tp1741
a(I1554122
I1554656
tp1742
a(I1626385
I1626934
tp1743
a(I1673825
I1674013
tp1744
a(I1709323
I1709920
tp1745
a(I1785704
I1785900
tp1746
a(I1811293
I1811566
tp1747
a(I1842868
I1843017
tp1748
a(I1871446
I1871938
tp1749
a(I1947529
I1947813
tp1750
a(I1979134
I1979204
tp1751
a(I2024830
I2025768
tp1752
a(I2178770
I2179473
tp1753
a(I2281729
I2282209
tp1754
a(I2332773
I2333072
tp1755
a(I2393888
I2394667
tp1756
a(I2484493
I2484681
tp1757
a(I2514867
I2515358
tp1758
a(I2566936
I2567130
tp1759
a(I2599894
I2600412
tp1760
a(I2687811
I2688896
tp1761
a(I2847589
I2847859
tp1762
a(I2899846
I2900340
tp1763
a(I2964330
I2964456
tp1764
a(I2983829
I2984241
tp1765
a(I3052143
I3052565
tp1766
a(I3113112
I3113514
tp1767
a(I3143543
I3143668
tp1768
aa(lp1769
(I869
I919
tp1770
a(I32215
I32762
tp1771
a(I98459
I98922
tp1772
a(I141031
I141323
tp1773
a(I214771
I215759
tp1774
a(I412525
I412837
tp1775
a(I467554
I467859
tp1776
a(I507476
I507736
tp1777
a(I533651
I533778
tp1778
a(I559071
I559552
tp1779
a(I672091
I672672
tp1780
a(I752284
I752518
tp1781
a(I786971
I787359
tp1782
a(I828933
I829129
tp1783
a(I873286
I874035
tp1784
a(I988830
I989324
tp1785
a(I1059912
I1060261
tp1786
a(I1113693
I1114205
tp1787
a(I1175117
I1175688
tp1788
a(I1246121
I1246547
tp1789
a(I1306355
I1306722
tp1790
a(I1362050
I1362280
tp1791
a(I1398329
I1398961
tp1792
a(I1491321
I1491702
tp1793
a(I1554656
I1555163
tp1794
a(I1626934
I1627444
tp1795
a(I1674013
I1674191
tp1796
a(I1709920
I1710537
tp1797
a(I1785900
I1786105
tp1798
a(I1811566
I1811829
tp1799
a(I1843017
I1843158
tp1800
a(I1871938
I1872393
tp1801
a(I1947813
I1948093
tp1802
a(I1979204
I1979274
tp1803
a(I2025768
I2026682
tp1804
a(I2179473
I2180148
tp1805
a(I2282209
I2282689
tp1806
a(I2333072
I2333363
tp1807
a(I2394667
I2395399
tp1808
a(I2484681
I2484855
tp1809
a(I2515358
I2515859
tp1810
a(I2567130
I2567307
tp1811
a(I2600412
I2600934
tp1812
a(I2688896
I2689978
tp1813
a(I2847859
I2848121
tp1814
a(I2900340
I2900822
tp1815
a(I2964456
I2964578
tp1816
a(I2984241
I2984663
tp1817
a(I3052565
I3052957
tp1818
a(I3113514
I3113908
tp1819
a(I3143668
I3143789
tp1820
aa(lp1821
(I919
I969
tp1822
a(I32762
I33281
tp1823
a(I98922
I99365
tp1824
a(I141323
I141594
tp1825
a(I215759
I216796
tp1826
a(I412837
I413140
tp1827
a(I467859
I468160
tp1828
a(I507736
I508006
tp1829
a(I533778
I533891
tp1830
a(I559552
I560042
tp1831
a(I672672
I673228
tp1832
a(I752518
I752746
tp1833
a(I787359
I787736
tp1834
a(I829129
I829327
tp1835
a(I874035
I874771
tp1836
a(I989324
I989799
tp1837
a(I1060261
I1060604
tp1838
a(I1114205
I1114702
tp1839
a(I1175688
I1176232
tp1840
a(I1246547
I1246984
tp1841
a(I1306722
I1307085
tp1842
a(I1362280
I1362510
tp1843
a(I1398961
I1399573
tp1844
a(I1491702
I1492124
tp1845
a(I1555163
I1555653
tp1846
a(I1627444
I1627955
tp1847
a(I1674191
I1674365
tp1848
a(I1710537
I1711134
tp1849
a(I1786105
I1786303
tp1850
a(I1811829
I1812097
tp1851
a(I1843158
I1843293
tp1852
a(I1872393
I1872868
tp1853
a(I1948093
I1948369
tp1854
a(I1979274
I1979343
tp1855
a(I2026682
I2027622
tp1856
a(I2180148
I2180827
tp1857
a(I2282689
I2283155
tp1858
a(I2333363
I2333647
tp1859
a(I2395399
I2396137
tp1860
a(I2484855
I2485029
tp1861
a(I2515859
I2516350
tp1862
a(I2567307
I2567486
tp1863
a(I2600934
I2601446
tp1864
a(I2689978
I2691054
tp1865
a(I2848121
I2848370
tp1866
a(I2900822
I2901303
tp1867
a(I2964578
I2964699
tp1868
a(I2984663
I2985088
tp1869
a(I3052957
I3053361
tp1870
a(I3113908
I3114293
tp1871
a(I3143789
I3143897
tp1872
aa(lp1873
(I969
I1029
tp1874
a(I33281
I33846
tp1875
a(I99365
I99834
tp1876
a(I141594
I141893
tp1877
a(I216796
I217953
tp1878
a(I413140
I413492
tp1879
a(I468160
I468501
tp1880
a(I508006
I508290
tp1881
a(I533891
I534028
tp1882
a(I560042
I560560
tp1883
a(I673228
I673839
tp1884
a(I752746
I752986
tp1885
a(I787736
I788154
tp1886
a(I829327
I829553
tp1887
a(I874771
I875606
tp1888
a(I989799
I990360
tp1889
a(I1060604
I1060987
tp1890
a(I1114702
I1115237
tp1891
a(I1176232
I1176823
tp1892
a(I1246984
I1247468
tp1893
a(I1307085
I1307482
tp1894
a(I1362510
I1362758
tp1895
a(I1399573
I1400281
tp1896
a(I1492124
I1492597
tp1897
a(I1555653
I1556210
tp1898
a(I1627955
I1628490
tp1899
a(I1674365
I1674567
tp1900
a(I1711134
I1711769
tp1901
a(I1786303
I1786526
tp1902
a(I1812097
I1812388
tp1903
a(I1843293
I1843460
tp1904
a(I1872868
I1873385
tp1905
a(I1948369
I1948668
tp1906
a(I1979343
I1979421
tp1907
a(I2027622
I2028654
tp1908
a(I2180827
I2181599
tp1909
a(I2283155
I2283650
tp1910
a(I2333647
I2333974
tp1911
a(I2396137
I2396985
tp1912
a(I2485029
I2485222
tp1913
a(I2516350
I2516876
tp1914
a(I2567486
I2567685
tp1915
a(I2601446
I2602002
tp1916
a(I2691054
I2692183
tp1917
a(I2848370
I2848637
tp1918
a(I2901303
I2901815
tp1919
a(I2964699
I2964835
tp1920
a(I2985088
I2985559
tp1921
a(I3053361
I3053811
tp1922
a(I3114293
I3114696
tp1923
a(I3143897
I3144022
tp1924
aa(lp1925
(I1029
I1105
tp1926
a(I33846
I34447
tp1927
a(I99834
I100327
tp1928
a(I141893
I142213
tp1929
a(I217953
I219184
tp1930
a(I413492
I413869
tp1931
a(I468501
I468849
tp1932
a(I508290
I508602
tp1933
a(I534028
I534175
tp1934
a(I560560
I561104
tp1935
a(I673839
I674467
tp1936
a(I752986
I753243
tp1937
a(I788154
I788601
tp1938
a(I829553
I829786
tp1939
a(I875606
I876489
tp1940
a(I990360
I990958
tp1941
a(I1060987
I1061396
tp1942
a(I1115237
I1115802
tp1943
a(I1176823
I1177432
tp1944
a(I1247468
I1247976
tp1945
a(I1307482
I1307906
tp1946
a(I1362758
I1363026
tp1947
a(I1400281
I1401057
tp1948
a(I1492597
I1493084
tp1949
a(I1556210
I1556779
tp1950
a(I1628490
I1629062
tp1951
a(I1674567
I1674785
tp1952
a(I1711769
I1712434
tp1953
a(I1786526
I1786754
tp1954
a(I1812388
I1812709
tp1955
a(I1843460
I1843640
tp1956
a(I1873385
I1873948
tp1957
a(I1948668
I1948982
tp1958
a(I1979421
I1979524
tp1959
a(I2028654
I2029779
tp1960
a(I2181599
I2182420
tp1961
a(I2283650
I2284158
tp1962
a(I2333974
I2334365
tp1963
a(I2396985
I2397879
tp1964
a(I2485222
I2485426
tp1965
a(I2516876
I2517407
tp1966
a(I2567685
I2567906
tp1967
a(I2602002
I2602571
tp1968
a(I2692183
I2693374
tp1969
a(I2848637
I2848945
tp1970
a(I2901815
I2902389
tp1971
a(I2964835
I2964984
tp1972
a(I2985559
I2986062
tp1973
a(I3053811
I3054294
tp1974
a(I3114696
I3115148
tp1975
a(I3144022
I3144161
tp1976
aa(lp1977
(I1105
I1182
tp1978
a(I34447
I35057
tp1979
a(I100327
I100813
tp1980
a(I142213
I142549
tp1981
a(I219184
I220411
tp1982
a(I413869
I414260
tp1983
a(I468849
I469180
tp1984
a(I508602
I508907
tp1985
a(I534175
I534309
tp1986
a(I561104
I561655
tp1987
a(I674467
I675095
tp1988
a(I753243
I753495
tp1989
a(I788601
I789039
tp1990
a(I829786
I830037
tp1991
a(I876489
I877362
tp1992
a(I990958
I991538
tp1993
a(I1061396
I1061777
tp1994
a(I1115802
I1116356
tp1995
a(I1177432
I1178041
tp1996
a(I1247976
I1248472
tp1997
a(I1307906
I1308328
tp1998
a(I1363026
I1363279
tp1999
a(I1401057
I1401800
tp2000
a(I1493084
I1493551
tp2001
a(I1556779
I1557354
tp2002
a(I1629062
I1629607
tp2003
a(I1674785
I1675012
tp2004
a(I1712434
I1713101
tp2005
a(I1786754
I1786988
tp2006
a(I1812709
I1813027
tp2007
a(I1843640
I1843828
tp2008
a(I1873948
I1874485
tp2009
a(I1948982
I1949299
tp2010
a(I1979524
I1979610
tp2011
a(I2029779
I2030897
tp2012
a(I2182420
I2183240
tp2013
a(I2284158
I2284646
tp2014
a(I2334365
I2334736
tp2015
a(I2397879
I2398752
tp2016
a(I2485426
I2485629
tp2017
a(I2517407
I2517936
tp2018
a(I2567906
I2568134
tp2019
a(I2602571
I2603148
tp2020
a(I2693374
I2694558
tp2021
a(I2848945
I2849255
tp2022
a(I2902389
I2902920
tp2023
a(I2964984
I2965131
tp2024
a(I2986062
I2986547
tp2025
a(I3054294
I3054751
tp2026
a(I3115148
I3115594
tp2027
a(I3144161
I3144302
tp2028
aa(lp2029
(I1182
I1270
tp2030
a(I35057
I35635
tp2031
a(I100813
I101303
tp2032
a(I142549
I142878
tp2033
a(I220411
I221654
tp2034
a(I414260
I414636
tp2035
a(I469180
I469519
tp2036
a(I508907
I509224
tp2037
a(I534309
I534452
tp2038
a(I561655
I562199
tp2039
a(I675095
I675726
tp2040
a(I753495
I753763
tp2041
a(I789039
I789501
tp2042
a(I830037
I830283
tp2043
a(I877362
I878226
tp2044
a(I991538
I992128
tp2045
a(I1061777
I1062181
tp2046
a(I1116356
I1116911
tp2047
a(I1178041
I1178654
tp2048
a(I1248472
I1248948
tp2049
a(I1308328
I1308747
tp2050
a(I1363279
I1363537
tp2051
a(I1401800
I1402567
tp2052
a(I1493551
I1494023
tp2053
a(I1557354
I1557931
tp2054
a(I1629607
I1630178
tp2055
a(I1675012
I1675239
tp2056
a(I1713101
I1713762
tp2057
a(I1786988
I1787224
tp2058
a(I1813027
I1813348
tp2059
a(I1843828
I1843997
tp2060
a(I1874485
I1875033
tp2061
a(I1949299
I1949631
tp2062
a(I1979610
I1979697
tp2063
a(I2030897
I2032021
tp2064
a(I2183240
I2184068
tp2065
a(I2284646
I2285136
tp2066
a(I2334736
I2335114
tp2067
a(I2398752
I2399622
tp2068
a(I2485629
I2485823
tp2069
a(I2517936
I2518464
tp2070
a(I2568134
I2568371
tp2071
a(I2603148
I2603702
tp2072
a(I2694558
I2695748
tp2073
a(I2849255
I2849559
tp2074
a(I2902920
I2903480
tp2075
a(I2965131
I2965280
tp2076
a(I2986547
I2987036
tp2077
a(I3054751
I3055229
tp2078
a(I3115594
I3116033
tp2079
a(I3144302
I3144446
tp2080
aa(lp2081
(I1270
I1367
tp2082
a(I35635
I36244
tp2083
a(I101303
I101773
tp2084
a(I142878
I143233
tp2085
a(I221654
I222878
tp2086
a(I414636
I415024
tp2087
a(I469519
I469852
tp2088
a(I509224
I509545
tp2089
a(I534452
I534605
tp2090
a(I562199
I562750
tp2091
a(I675726
I676362
tp2092
a(I753763
I754036
tp2093
a(I789501
I789978
tp2094
a(I830283
I830523
tp2095
a(I878226
I879129
tp2096
a(I992128
I992716
tp2097
a(I1062181
I1062590
tp2098
a(I1116911
I1117452
tp2099
a(I1178654
I1179294
tp2100
a(I1248948
I1249417
tp2101
a(I1308747
I1309183
tp2102
a(I1363537
I1363797
tp2103
a(I1402567
I1403355
tp2104
a(I1494023
I1494520
tp2105
a(I1557931
I1558522
tp2106
a(I1630178
I1630724
tp2107
a(I1675239
I1675456
tp2108
a(I1713762
I1714426
tp2109
a(I1787224
I1787450
tp2110
a(I1813348
I1813668
tp2111
a(I1843997
I1844175
tp2112
a(I1875033
I1875597
tp2113
a(I1949631
I1949968
tp2114
a(I1979697
I1979786
tp2115
a(I2032021
I2033155
tp2116
a(I2184068
I2184903
tp2117
a(I2285136
I2285637
tp2118
a(I2335114
I2335502
tp2119
a(I2399622
I2400505
tp2120
a(I2485823
I2486029
tp2121
a(I2518464
I2518998
tp2122
a(I2568371
I2568620
tp2123
a(I2603702
I2604267
tp2124
a(I2695748
I2696952
tp2125
a(I2849559
I2849876
tp2126
a(I2903480
I2904021
tp2127
a(I2965280
I2965427
tp2128
a(I2987036
I2987529
tp2129
a(I3055229
I3055707
tp2130
a(I3116033
I3116483
tp2131
a(I3144446
I3144594
tp2132
aa(lp2133
(I1367
I1466
tp2134
a(I36244
I36849
tp2135
a(I101773
I102236
tp2136
a(I143233
I143606
tp2137
a(I222878
I224145
tp2138
a(I415024
I415422
tp2139
a(I469852
I470189
tp2140
a(I509545
I509889
tp2141
a(I534605
I534758
tp2142
a(I562750
I563324
tp2143
a(I676362
I677017
tp2144
a(I754036
I754298
tp2145
a(I789978
I790458
tp2146
a(I830523
I830772
tp2147
a(I879129
I880036
tp2148
a(I992716
I993323
tp2149
a(I1062590
I1063018
tp2150
a(I1117452
I1118004
tp2151
a(I1179294
I1179928
tp2152
a(I1249417
I1249897
tp2153
a(I1309183
I1309618
tp2154
a(I1363797
I1364057
tp2155
a(I1403355
I1404162
tp2156
a(I1494520
I1495012
tp2157
a(I1558522
I1559120
tp2158
a(I1630724
I1631285
tp2159
a(I1675456
I1675694
tp2160
a(I1714426
I1715121
tp2161
a(I1787450
I1787701
tp2162
a(I1813668
I1814011
tp2163
a(I1844175
I1844364
tp2164
a(I1875597
I1876157
tp2165
a(I1949968
I1950314
tp2166
a(I1979786
I1979886
tp2167
a(I2033155
I2034310
tp2168
a(I2184903
I2185753
tp2169
a(I2285637
I2286122
tp2170
a(I2335502
I2335902
tp2171
a(I2400505
I2401419
tp2172
a(I2486029
I2486238
tp2173
a(I2518998
I2519536
tp2174
a(I2568620
I2568863
tp2175
a(I2604267
I2604830
tp2176
a(I2696952
I2698204
tp2177
a(I2849876
I2850204
tp2178
a(I2904021
I2904605
tp2179
a(I2965427
I2965576
tp2180
a(I2987529
I2988040
tp2181
a(I3055707
I3056203
tp2182
a(I3116483
I3116919
tp2183
a(I3144594
I3144750
tp2184
aa(lp2185
(I1466
I1595
tp2186
a(I36849
I37445
tp2187
a(I102236
I102700
tp2188
a(I143606
I143968
tp2189
a(I224145
I225483
tp2190
a(I415422
I415829
tp2191
a(I470189
I470554
tp2192
a(I509889
I510230
tp2193
a(I534758
I534923
tp2194
a(I563324
I563935
tp2195
a(I677017
I677691
tp2196
a(I754298
I754597
tp2197
a(I790458
I790928
tp2198
a(I830772
I831044
tp2199
a(I880036
I880992
tp2200
a(I993323
I993966
tp2201
a(I1063018
I1063466
tp2202
a(I1118004
I1118558
tp2203
a(I1179928
I1180583
tp2204
a(I1249897
I1250384
tp2205
a(I1309618
I1310087
tp2206
a(I1364057
I1364326
tp2207
a(I1404162
I1404995
tp2208
a(I1495012
I1495505
tp2209
a(I1559120
I1559717
tp2210
a(I1631285
I1631849
tp2211
a(I1675694
I1675942
tp2212
a(I1715121
I1715802
tp2213
a(I1787701
I1787950
tp2214
a(I1814011
I1814358
tp2215
a(I1844364
I1844549
tp2216
a(I1876157
I1876742
tp2217
a(I1950314
I1950669
tp2218
a(I1979886
I1979990
tp2219
a(I2034310
I2035516
tp2220
a(I2185753
I2186624
tp2221
a(I2286122
I2286607
tp2222
a(I2335902
I2336296
tp2223
a(I2401419
I2402320
tp2224
a(I2486238
I2486446
tp2225
a(I2519536
I2520096
tp2226
a(I2568863
I2569109
tp2227
a(I2604830
I2605417
tp2228
a(I2698204
I2699468
tp2229
a(I2850204
I2850542
tp2230
a(I2904605
I2905190
tp2231
a(I2965576
I2965736
tp2232
a(I2988040
I2988566
tp2233
a(I3056203
I3056697
tp2234
a(I3116919
I3117363
tp2235
a(I3144750
I3144910
tp2236
aa(lp2237
(I1595
I1744
tp2238
a(I37445
I38032
tp2239
a(I102700
I103162
tp2240
a(I143968
I144361
tp2241
a(I225483
I226874
tp2242
a(I415829
I416249
tp2243
a(I470554
I470946
tp2244
a(I510230
I510585
tp2245
a(I534923
I535087
tp2246
a(I563935
I564590
tp2247
a(I677691
I678353
tp2248
a(I754597
I754897
tp2249
a(I790928
I791403
tp2250
a(I831044
I831309
tp2251
a(I880992
I881947
tp2252
a(I993966
I994595
tp2253
a(I1063466
I1063924
tp2254
a(I1118558
I1119113
tp2255
a(I1180583
I1181258
tp2256
a(I1250384
I1250896
tp2257
a(I1310087
I1310569
tp2258
a(I1364326
I1364603
tp2259
a(I1404995
I1405834
tp2260
a(I1495505
I1496012
tp2261
a(I1559717
I1560330
tp2262
a(I1631849
I1632419
tp2263
a(I1675942
I1676191
tp2264
a(I1715802
I1716511
tp2265
a(I1787950
I1788216
tp2266
a(I1814358
I1814699
tp2267
a(I1844549
I1844732
tp2268
a(I1876742
I1877355
tp2269
a(I1950669
I1951039
tp2270
a(I1979990
I1980103
tp2271
a(I2035516
I2036749
tp2272
a(I2186624
I2187530
tp2273
a(I2286607
I2287093
tp2274
a(I2336296
I2336707
tp2275
a(I2402320
I2403254
tp2276
a(I2486446
I2486662
tp2277
a(I2520096
I2520664
tp2278
a(I2569109
I2569356
tp2279
a(I2605417
I2605996
tp2280
a(I2699468
I2700798
tp2281
a(I2850542
I2850890
tp2282
a(I2905190
I2905787
tp2283
a(I2965736
I2965890
tp2284
a(I2988566
I2989079
tp2285
a(I3056697
I3057186
tp2286
a(I3117363
I3117790
tp2287
a(I3144910
I3145077
tp2288
aa(lp2289
(I1744
I1896
tp2290
a(I38032
I38656
tp2291
a(I103162
I103626
tp2292
a(I144361
I144761
tp2293
a(I226874
I228313
tp2294
a(I416249
I416691
tp2295
a(I470946
I471340
tp2296
a(I510585
I510933
tp2297
a(I535087
I535264
tp2298
a(I564590
I565260
tp2299
a(I678353
I679043
tp2300
a(I754897
I755198
tp2301
a(I791403
I791853
tp2302
a(I831309
I831587
tp2303
a(I881947
I882951
tp2304
a(I994595
I995274
tp2305
a(I1063924
I1064397
tp2306
a(I1119113
I1119677
tp2307
a(I1181258
I1181951
tp2308
a(I1250896
I1251400
tp2309
a(I1310569
I1311041
tp2310
a(I1364603
I1364890
tp2311
a(I1405834
I1406730
tp2312
a(I1496012
I1496521
tp2313
a(I1560330
I1560973
tp2314
a(I1632419
I1632983
tp2315
a(I1676191
I1676455
tp2316
a(I1716511
I1717212
tp2317
a(I1788216
I1788493
tp2318
a(I1814699
I1815045
tp2319
a(I1844732
I1844927
tp2320
a(I1877355
I1877966
tp2321
a(I1951039
I1951418
tp2322
a(I1980103
I1980237
tp2323
a(I2036749
I2038026
tp2324
a(I2187530
I2188484
tp2325
a(I2287093
I2287606
tp2326
a(I2336707
I2337108
tp2327
a(I2403254
I2404185
tp2328
a(I2486662
I2486886
tp2329
a(I2520664
I2521221
tp2330
a(I2569356
I2569626
tp2331
a(I2605996
I2606601
tp2332
a(I2700798
I2702139
tp2333
a(I2850890
I2851231
tp2334
a(I2905787
I2906413
tp2335
a(I2965890
I2966056
tp2336
a(I2989079
I2989613
tp2337
a(I3057186
I3057714
tp2338
a(I3117790
I3118222
tp2339
a(I3145077
I3145264
tp2340
aa(lp2341
(I1896
I2069
tp2342
a(I38656
I39304
tp2343
a(I103626
I104094
tp2344
a(I144761
I145185
tp2345
a(I228313
I229776
tp2346
a(I416691
I417153
tp2347
a(I471340
I471754
tp2348
a(I510933
I511299
tp2349
a(I535264
I535454
tp2350
a(I565260
I565953
tp2351
a(I679043
I679777
tp2352
a(I755198
I755514
tp2353
a(I791853
I792330
tp2354
a(I831587
I831870
tp2355
a(I882951
I883972
tp2356
a(I995274
I995956
tp2357
a(I1064397
I1064872
tp2358
a(I1119677
I1120241
tp2359
a(I1181951
I1182650
tp2360
a(I1251400
I1251934
tp2361
a(I1311041
I1311542
tp2362
a(I1364890
I1365170
tp2363
a(I1406730
I1407661
tp2364
a(I1496521
I1497039
tp2365
a(I1560973
I1561620
tp2366
a(I1632983
I1633554
tp2367
a(I1676455
I1676734
tp2368
a(I1717212
I1717959
tp2369
a(I1788493
I1788768
tp2370
a(I1815045
I1815409
tp2371
a(I1844927
I1845124
tp2372
a(I1877966
I1878616
tp2373
a(I1951418
I1951805
tp2374
a(I1980237
I1980366
tp2375
a(I2038026
I2039317
tp2376
a(I2188484
I2189457
tp2377
a(I2287606
I2288126
tp2378
a(I2337108
I2337522
tp2379
a(I2404185
I2405150
tp2380
a(I2486886
I2487108
tp2381
a(I2521221
I2521800
tp2382
a(I2569626
I2569896
tp2383
a(I2606601
I2607226
tp2384
a(I2702139
I2703500
tp2385
a(I2851231
I2851601
tp2386
a(I2906413
I2907045
tp2387
a(I2966056
I2966231
tp2388
a(I2989613
I2990164
tp2389
a(I3057714
I3058235
tp2390
a(I3118222
I3118658
tp2391
a(I3145264
I3145450
tp2392
aa(lp2393
(I2069
I2242
tp2394
a(I39304
I39964
tp2395
a(I104094
I104559
tp2396
a(I145185
I145623
tp2397
a(I229776
I231336
tp2398
a(I417153
I417640
tp2399
a(I471754
I472184
tp2400
a(I511299
I511679
tp2401
a(I535454
I535650
tp2402
a(I565953
I566691
tp2403
a(I679777
I680502
tp2404
a(I755514
I755845
tp2405
a(I792330
I792818
tp2406
a(I831870
I832141
tp2407
a(I883972
I885046
tp2408
a(I995956
I996665
tp2409
a(I1064872
I1065365
tp2410
a(I1120241
I1120826
tp2411
a(I1182650
I1183382
tp2412
a(I1251934
I1252479
tp2413
a(I1311542
I1312064
tp2414
a(I1365170
I1365457
tp2415
a(I1407661
I1408624
tp2416
a(I1497039
I1497562
tp2417
a(I1561620
I1562289
tp2418
a(I1633554
I1634129
tp2419
a(I1676734
I1677022
tp2420
a(I1717959
I1718717
tp2421
a(I1788768
I1789035
tp2422
a(I1815409
I1815780
tp2423
a(I1845124
I1845314
tp2424
a(I1878616
I1879286
tp2425
a(I1951805
I1952194
tp2426
a(I1980366
I1980507
tp2427
a(I2039317
I2040651
tp2428
a(I2189457
I2190492
tp2429
a(I2288126
I2288655
tp2430
a(I2337522
I2337943
tp2431
a(I2405150
I2406133
tp2432
a(I2487108
I2487337
tp2433
a(I2521800
I2522371
tp2434
a(I2569896
I2570169
tp2435
a(I2607226
I2607855
tp2436
a(I2703500
I2704922
tp2437
a(I2851601
I2851973
tp2438
a(I2907045
I2907678
tp2439
a(I2966231
I2966390
tp2440
a(I2990164
I2990743
tp2441
a(I3058235
I3058763
tp2442
a(I3118658
I3119117
tp2443
a(I3145450
I3145631
tp2444
aa(lp2445
(I2242
I2427
tp2446
a(I39964
I40628
tp2447
a(I104559
I105026
tp2448
a(I145623
I146082
tp2449
a(I231336
I232950
tp2450
a(I417640
I418134
tp2451
a(I472184
I472640
tp2452
a(I511679
I512059
tp2453
a(I535650
I535860
tp2454
a(I566691
I567475
tp2455
a(I680502
I681249
tp2456
a(I755845
I756159
tp2457
a(I792818
I793314
tp2458
a(I832141
I832424
tp2459
a(I885046
I886146
tp2460
a(I996665
I997385
tp2461
a(I1065365
I1065867
tp2462
a(I1120826
I1121425
tp2463
a(I1183382
I1184129
tp2464
a(I1252479
I1253049
tp2465
a(I1312064
I1312600
tp2466
a(I1365457
I1365744
tp2467
a(I1408624
I1409612
tp2468
a(I1497562
I1498100
tp2469
a(I1562289
I1562995
tp2470
a(I1634129
I1634693
tp2471
a(I1677022
I1677319
tp2472
a(I1718717
I1719460
tp2473
a(I1789035
I1789295
tp2474
a(I1815780
I1816156
tp2475
a(I1845314
I1845519
tp2476
a(I1879286
I1880007
tp2477
a(I1952194
I1952607
tp2478
a(I1980507
I1980654
tp2479
a(I2040651
I2042042
tp2480
a(I2190492
I2191542
tp2481
a(I2288655
I2289171
tp2482
a(I2337943
I2338381
tp2483
a(I2406133
I2407140
tp2484
a(I2487337
I2487571
tp2485
a(I2522371
I2522946
tp2486
a(I2570169
I2570440
tp2487
a(I2607855
I2608483
tp2488
a(I2704922
I2706320
tp2489
a(I2851973
I2852362
tp2490
a(I2907678
I2908352
tp2491
a(I2966390
I2966561
tp2492
a(I2990743
I2991326
tp2493
a(I3058763
I3059326
tp2494
a(I3119117
I3119559
tp2495
a(I3145631
I3145809
tp2496
aa(lp2497
(I2427
I2604
tp2498
a(I40628
I41303
tp2499
a(I105026
I105501
tp2500
a(I146082
I146558
tp2501
a(I232950
I234576
tp2502
a(I418134
I418619
tp2503
a(I472640
I473097
tp2504
a(I512059
I512435
tp2505
a(I535860
I536059
tp2506
a(I567475
I568270
tp2507
a(I681249
I681998
tp2508
a(I756159
I756475
tp2509
a(I793314
I793809
tp2510
a(I832424
I832704
tp2511
a(I886146
I887275
tp2512
a(I997385
I998105
tp2513
a(I1065867
I1066357
tp2514
a(I1121425
I1122013
tp2515
a(I1184129
I1184880
tp2516
a(I1253049
I1253639
tp2517
a(I1312600
I1313143
tp2518
a(I1365744
I1366037
tp2519
a(I1409612
I1410590
tp2520
a(I1498100
I1498641
tp2521
a(I1562995
I1563683
tp2522
a(I1634693
I1635277
tp2523
a(I1677319
I1677598
tp2524
a(I1719460
I1720205
tp2525
a(I1789295
I1789559
tp2526
a(I1816156
I1816528
tp2527
a(I1845519
I1845723
tp2528
a(I1880007
I1880741
tp2529
a(I1952607
I1953018
tp2530
a(I1980654
I1980814
tp2531
a(I2042042
I2043462
tp2532
a(I2191542
I2192575
tp2533
a(I2289171
I2289715
tp2534
a(I2338381
I2338802
tp2535
a(I2407140
I2408147
tp2536
a(I2487571
I2487799
tp2537
a(I2522946
I2523515
tp2538
a(I2570440
I2570703
tp2539
a(I2608483
I2609123
tp2540
a(I2706320
I2707722
tp2541
a(I2852362
I2852747
tp2542
a(I2908352
I2909010
tp2543
a(I2966561
I2966738
tp2544
a(I2991326
I2991900
tp2545
a(I3059326
I3059889
tp2546
a(I3119559
I3120013
tp2547
a(I3145809
I3145981
tp2548
aa(lp2549
(I2604
I2783
tp2550
a(I41303
I41977
tp2551
a(I105501
I105985
tp2552
a(I146558
I147051
tp2553
a(I234576
I236270
tp2554
a(I418619
I419133
tp2555
a(I473097
I473566
tp2556
a(I512435
I512825
tp2557
a(I536059
I536267
tp2558
a(I568270
I569083
tp2559
a(I681998
I682757
tp2560
a(I756475
I756823
tp2561
a(I793809
I794312
tp2562
a(I832704
I832995
tp2563
a(I887275
I888442
tp2564
a(I998105
I998844
tp2565
a(I1066357
I1066871
tp2566
a(I1122013
I1122606
tp2567
a(I1184880
I1185658
tp2568
a(I1253639
I1254252
tp2569
a(I1313143
I1313699
tp2570
a(I1366037
I1366334
tp2571
a(I1410590
I1411559
tp2572
a(I1498641
I1499199
tp2573
a(I1563683
I1564391
tp2574
a(I1635277
I1635880
tp2575
a(I1677598
I1677903
tp2576
a(I1720205
I1720950
tp2577
a(I1789559
I1789844
tp2578
a(I1816528
I1816916
tp2579
a(I1845723
I1845930
tp2580
a(I1880741
I1881503
tp2581
a(I1953018
I1953436
tp2582
a(I1980814
I1980974
tp2583
a(I2043462
I2044893
tp2584
a(I2192575
I2193623
tp2585
a(I2289715
I2290246
tp2586
a(I2338802
I2339241
tp2587
a(I2408147
I2409149
tp2588
a(I2487799
I2488044
tp2589
a(I2523515
I2524070
tp2590
a(I2570703
I2570993
tp2591
a(I2609123
I2609766
tp2592
a(I2707722
I2709144
tp2593
a(I2852747
I2853127
tp2594
a(I2909010
I2909679
tp2595
a(I2966738
I2966912
tp2596
a(I2991900
I2992501
tp2597
a(I3059889
I3060461
tp2598
a(I3120013
I3120447
tp2599
a(I3145981
I3146164
tp2600
aa(lp2601
(I2783
I2966
tp2602
a(I41977
I42672
tp2603
a(I105985
I106466
tp2604
a(I147051
I147548
tp2605
a(I236270
I238047
tp2606
a(I419133
I419659
tp2607
a(I473566
I474037
tp2608
a(I512825
I513241
tp2609
a(I536267
I536480
tp2610
a(I569083
I569935
tp2611
a(I682757
I683522
tp2612
a(I756823
I757138
tp2613
a(I794312
I794812
tp2614
a(I832995
I833291
tp2615
a(I888442
I889614
tp2616
a(I998844
I999594
tp2617
a(I1066871
I1067372
tp2618
a(I1122606
I1123192
tp2619
a(I1185658
I1186424
tp2620
a(I1254252
I1254856
tp2621
a(I1313699
I1314257
tp2622
a(I1366334
I1366624
tp2623
a(I1411559
I1412535
tp2624
a(I1499199
I1499740
tp2625
a(I1564391
I1565095
tp2626
a(I1635880
I1636485
tp2627
a(I1677903
I1678202
tp2628
a(I1720950
I1721704
tp2629
a(I1789844
I1790122
tp2630
a(I1816916
I1817313
tp2631
a(I1845930
I1846139
tp2632
a(I1881503
I1882274
tp2633
a(I1953436
I1953879
tp2634
a(I1980974
I1981132
tp2635
a(I2044893
I2046350
tp2636
a(I2193623
I2194717
tp2637
a(I2290246
I2290794
tp2638
a(I2339241
I2339684
tp2639
a(I2409149
I2410174
tp2640
a(I2488044
I2488296
tp2641
a(I2524070
I2524650
tp2642
a(I2570993
I2571273
tp2643
a(I2609766
I2610425
tp2644
a(I2709144
I2710610
tp2645
a(I2853127
I2853524
tp2646
a(I2909679
I2910352
tp2647
a(I2966912
I2967087
tp2648
a(I2992501
I2993104
tp2649
a(I3060461
I3061049
tp2650
a(I3120447
I3120877
tp2651
a(I3146164
I3146349
tp2652
aa(lp2653
(I2966
I3154
tp2654
a(I42672
I43369
tp2655
a(I106466
I106953
tp2656
a(I147548
I148057
tp2657
a(I238047
I239882
tp2658
a(I419659
I420195
tp2659
a(I474037
I474521
tp2660
a(I513241
I513652
tp2661
a(I536480
I536694
tp2662
a(I569935
I570809
tp2663
a(I683522
I684322
tp2664
a(I757138
I757478
tp2665
a(I794812
I795325
tp2666
a(I833291
I833591
tp2667
a(I889614
I890811
tp2668
a(I999594
I1000339
tp2669
a(I1067372
I1067862
tp2670
a(I1123192
I1123805
tp2671
a(I1186424
I1187218
tp2672
a(I1254856
I1255474
tp2673
a(I1314257
I1314838
tp2674
a(I1366624
I1366927
tp2675
a(I1412535
I1413531
tp2676
a(I1499740
I1500323
tp2677
a(I1565095
I1565813
tp2678
a(I1636485
I1637085
tp2679
a(I1678202
I1678484
tp2680
a(I1721704
I1722479
tp2681
a(I1790122
I1790396
tp2682
a(I1817313
I1817714
tp2683
a(I1846139
I1846350
tp2684
a(I1882274
I1883075
tp2685
a(I1953879
I1954315
tp2686
a(I1981132
I1981306
tp2687
a(I2046350
I2047847
tp2688
a(I2194717
I2195803
tp2689
a(I2290794
I2291326
tp2690
a(I2339684
I2340132
tp2691
a(I2410174
I2411216
tp2692
a(I2488296
I2488564
tp2693
a(I2524650
I2525240
tp2694
a(I2571273
I2571564
tp2695
a(I2610425
I2611104
tp2696
a(I2710610
I2712099
tp2697
a(I2853524
I2853926
tp2698
a(I2910352
I2911020
tp2699
a(I2967087
I2967257
tp2700
a(I2993104
I2993715
tp2701
a(I3061049
I3061653
tp2702
a(I3120877
I3121297
tp2703
a(I3146349
I3146540
tp2704
aa(lp2705
(I3154
I3346
tp2706
a(I43369
I44037
tp2707
a(I106953
I107429
tp2708
a(I148057
I148577
tp2709
a(I239882
I241683
tp2710
a(I420195
I420709
tp2711
a(I474521
I474991
tp2712
a(I513652
I514072
tp2713
a(I536694
I536895
tp2714
a(I570809
I571722
tp2715
a(I684322
I685097
tp2716
a(I757478
I757821
tp2717
a(I795325
I795833
tp2718
a(I833591
I833886
tp2719
a(I890811
I892008
tp2720
a(I1000339
I1001100
tp2721
a(I1067862
I1068370
tp2722
a(I1123805
I1124395
tp2723
a(I1187218
I1188019
tp2724
a(I1255474
I1256086
tp2725
a(I1314838
I1315408
tp2726
a(I1366927
I1367236
tp2727
a(I1413531
I1414503
tp2728
a(I1500323
I1500888
tp2729
a(I1565813
I1566512
tp2730
a(I1637085
I1637700
tp2731
a(I1678484
I1678779
tp2732
a(I1722479
I1723233
tp2733
a(I1790396
I1790651
tp2734
a(I1817714
I1818100
tp2735
a(I1846350
I1846563
tp2736
a(I1883075
I1883861
tp2737
a(I1954315
I1954754
tp2738
a(I1981306
I1981488
tp2739
a(I2047847
I2049339
tp2740
a(I2195803
I2196870
tp2741
a(I2291326
I2291850
tp2742
a(I2340132
I2340577
tp2743
a(I2411216
I2412229
tp2744
a(I2488564
I2488813
tp2745
a(I2525240
I2525820
tp2746
a(I2571564
I2571855
tp2747
a(I2611104
I2611749
tp2748
a(I2712099
I2713557
tp2749
a(I2853926
I2854324
tp2750
a(I2911020
I2911707
tp2751
a(I2967257
I2967426
tp2752
a(I2993715
I2994317
tp2753
a(I3061653
I3062237
tp2754
a(I3121297
I3121713
tp2755
a(I3146540
I3146713
tp2756
aa(lp2757
(I3346
I3543
tp2758
a(I44037
I44717
tp2759
a(I107429
I107912
tp2760
a(I148577
I149095
tp2761
a(I241683
I243514
tp2762
a(I420709
I421219
tp2763
a(I474991
I475492
tp2764
a(I514072
I514501
tp2765
a(I536895
I537108
tp2766
a(I571722
I572615
tp2767
a(I685097
I685875
tp2768
a(I757821
I758153
tp2769
a(I795833
I796319
tp2770
a(I833886
I834174
tp2771
a(I892008
I893206
tp2772
a(I1001100
I1001837
tp2773
a(I1068370
I1068864
tp2774
a(I1124395
I1124993
tp2775
a(I1188019
I1188795
tp2776
a(I1256086
I1256714
tp2777
a(I1315408
I1315994
tp2778
a(I1367236
I1367530
tp2779
a(I1414503
I1415458
tp2780
a(I1500888
I1501432
tp2781
a(I1566512
I1567211
tp2782
a(I1637700
I1638291
tp2783
a(I1678779
I1679060
tp2784
a(I1723233
I1723988
tp2785
a(I1790651
I1790916
tp2786
a(I1818100
I1818486
tp2787
a(I1846563
I1846783
tp2788
a(I1883861
I1884661
tp2789
a(I1954754
I1955182
tp2790
a(I1981488
I1981683
tp2791
a(I2049339
I2050863
tp2792
a(I2196870
I2197938
tp2793
a(I2291850
I2292396
tp2794
a(I2340577
I2341026
tp2795
a(I2412229
I2413249
tp2796
a(I2488813
I2489049
tp2797
a(I2525820
I2526390
tp2798
a(I2571855
I2572125
tp2799
a(I2611749
I2612408
tp2800
a(I2713557
I2715000
tp2801
a(I2854324
I2854711
tp2802
a(I2911707
I2912387
tp2803
a(I2967426
I2967589
tp2804
a(I2994317
I2994896
tp2805
a(I3062237
I3062817
tp2806
a(I3121713
I3122116
tp2807
a(I3146713
I3146888
tp2808
aa(lp2809
(I3543
I3732
tp2810
a(I44717
I45409
tp2811
a(I107912
I108414
tp2812
a(I149095
I149621
tp2813
a(I243514
I245395
tp2814
a(I421219
I421747
tp2815
a(I475492
I475999
tp2816
a(I514501
I514926
tp2817
a(I537108
I537314
tp2818
a(I572615
I573533
tp2819
a(I685875
I686677
tp2820
a(I758153
I758475
tp2821
a(I796319
I796798
tp2822
a(I834174
I834450
tp2823
a(I893206
I894400
tp2824
a(I1001837
I1002579
tp2825
a(I1068864
I1069343
tp2826
a(I1124993
I1125610
tp2827
a(I1188795
I1189605
tp2828
a(I1256714
I1257318
tp2829
a(I1315994
I1316595
tp2830
a(I1367530
I1367828
tp2831
a(I1415458
I1416422
tp2832
a(I1501432
I1501992
tp2833
a(I1567211
I1567900
tp2834
a(I1638291
I1638880
tp2835
a(I1679060
I1679337
tp2836
a(I1723988
I1724775
tp2837
a(I1790916
I1791166
tp2838
a(I1818486
I1818856
tp2839
a(I1846783
I1846997
tp2840
a(I1884661
I1885446
tp2841
a(I1955182
I1955593
tp2842
a(I1981683
I1981890
tp2843
a(I2050863
I2052431
tp2844
a(I2197938
I2199015
tp2845
a(I2292396
I2292919
tp2846
a(I2341026
I2341463
tp2847
a(I2413249
I2414273
tp2848
a(I2489049
I2489300
tp2849
a(I2526390
I2526973
tp2850
a(I2572125
I2572400
tp2851
a(I2612408
I2613055
tp2852
a(I2715000
I2716464
tp2853
a(I2854711
I2855089
tp2854
a(I2912387
I2913085
tp2855
a(I2967589
I2967762
tp2856
a(I2994896
I2995475
tp2857
a(I3062817
I3063383
tp2858
a(I3122116
I3122527
tp2859
a(I3146888
I3147059
tp2860
aa(lp2861
(I3732
I3905
tp2862
a(I45409
I46080
tp2863
a(I108414
I108874
tp2864
a(I149621
I150116
tp2865
a(I245395
I247248
tp2866
a(I421747
I422218
tp2867
a(I475999
I476502
tp2868
a(I514926
I515321
tp2869
a(I537314
I537515
tp2870
a(I573533
I574400
tp2871
a(I686677
I687468
tp2872
a(I758475
I758783
tp2873
a(I796798
I797255
tp2874
a(I834450
I834717
tp2875
a(I894400
I895565
tp2876
a(I1002579
I1003304
tp2877
a(I1069343
I1069784
tp2878
a(I1125610
I1126148
tp2879
a(I1189605
I1190376
tp2880
a(I1257318
I1257942
tp2881
a(I1316595
I1317160
tp2882
a(I1367828
I1368107
tp2883
a(I1416422
I1417361
tp2884
a(I1501992
I1502524
tp2885
a(I1567900
I1568553
tp2886
a(I1638880
I1639445
tp2887
a(I1679337
I1679609
tp2888
a(I1724775
I1725499
tp2889
a(I1791166
I1791404
tp2890
a(I1818856
I1819199
tp2891
a(I1846997
I1847208
tp2892
a(I1885446
I1886260
tp2893
a(I1955593
I1956004
tp2894
a(I1981890
I1982095
tp2895
a(I2052431
I2053990
tp2896
a(I2199015
I2200032
tp2897
a(I2292919
I2293420
tp2898
a(I2341463
I2341898
tp2899
a(I2414273
I2415262
tp2900
a(I2489300
I2489543
tp2901
a(I2526973
I2527539
tp2902
a(I2572400
I2572638
tp2903
a(I2613055
I2613677
tp2904
a(I2716464
I2717880
tp2905
a(I2855089
I2855453
tp2906
a(I2913085
I2913749
tp2907
a(I2967762
I2967922
tp2908
a(I2995475
I2996034
tp2909
a(I3063383
I3063945
tp2910
a(I3122527
I3122906
tp2911
a(I3147059
I3147212
tp2912
aa(lp2913
(I3905
I4077
tp2914
a(I46080
I46732
tp2915
a(I108874
I109321
tp2916
a(I150116
I150611
tp2917
a(I247248
I249101
tp2918
a(I422218
I422702
tp2919
a(I476502
I476994
tp2920
a(I515321
I515726
tp2921
a(I537515
I537704
tp2922
a(I574400
I575265
tp2923
a(I687468
I688237
tp2924
a(I758783
I759090
tp2925
a(I797255
I797690
tp2926
a(I834717
I834959
tp2927
a(I895565
I896757
tp2928
a(I1003304
I1004007
tp2929
a(I1069784
I1070222
tp2930
a(I1126148
I1126690
tp2931
a(I1190376
I1191144
tp2932
a(I1257942
I1258544
tp2933
a(I1317160
I1317735
tp2934
a(I1368107
I1368387
tp2935
a(I1417361
I1418331
tp2936
a(I1502524
I1503039
tp2937
a(I1568553
I1569218
tp2938
a(I1639445
I1640001
tp2939
a(I1679609
I1679858
tp2940
a(I1725499
I1726206
tp2941
a(I1791404
I1791620
tp2942
a(I1819199
I1819546
tp2943
a(I1847208
I1847415
tp2944
a(I1886260
I1887065
tp2945
a(I1956004
I1956404
tp2946
a(I1982095
I1982288
tp2947
a(I2053990
I2055569
tp2948
a(I2200032
I2201045
tp2949
a(I2293420
I2293906
tp2950
a(I2341898
I2342338
tp2951
a(I2415262
I2416270
tp2952
a(I2489543
I2489770
tp2953
a(I2527539
I2528081
tp2954
a(I2572638
I2572870
tp2955
a(I2613677
I2614287
tp2956
a(I2717880
I2719297
tp2957
a(I2855453
I2855831
tp2958
a(I2913749
I2914413
tp2959
a(I2967922
I2968077
tp2960
a(I2996034
I2996590
tp2961
a(I3063945
I3064498
tp2962
a(I3122906
I3123275
tp2963
a(I3147212
I3147335
tp2964
aa(lp2965
(I4077
I4234
tp2966
a(I46732
I47356
tp2967
a(I109321
I109755
tp2968
a(I150611
I151097
tp2969
a(I249101
I251001
tp2970
a(I422702
I423181
tp2971
a(I476994
I477491
tp2972
a(I515726
I516120
tp2973
a(I537704
I537890
tp2974
a(I575265
I576147
tp2975
a(I688237
I689003
tp2976
a(I759090
I759390
tp2977
a(I797690
I798136
tp2978
a(I834959
I835199
tp2979
a(I896757
I897976
tp2980
a(I1004007
I1004735
tp2981
a(I1070222
I1070657
tp2982
a(I1126690
I1127243
tp2983
a(I1191144
I1191901
tp2984
a(I1258544
I1259164
tp2985
a(I1317735
I1318313
tp2986
a(I1368387
I1368652
tp2987
a(I1418331
I1419317
tp2988
a(I1503039
I1503541
tp2989
a(I1569218
I1569886
tp2990
a(I1640001
I1640548
tp2991
a(I1679858
I1680109
tp2992
a(I1726206
I1726949
tp2993
a(I1791620
I1791845
tp2994
a(I1819546
I1819899
tp2995
a(I1847415
I1847616
tp2996
a(I1887065
I1887872
tp2997
a(I1956404
I1956779
tp2998
a(I1982288
I1982468
tp2999
a(I2055569
I2057176
tp3000
a(I2201045
I2202082
tp3001
a(I2293906
I2294404
tp3002
a(I2342338
I2342770
tp3003
a(I2416270
I2417267
tp3004
a(I2489770
I2490009
tp3005
a(I2528081
I2528631
tp3006
a(I2572870
I2573087
tp3007
a(I2614287
I2614916
tp3008
a(I2719297
I2720748
tp3009
a(I2855831
I2856209
tp3010
a(I2914413
I2915067
tp3011
a(I2968077
I2968235
tp3012
a(I2996590
I2997170
tp3013
a(I3064498
I3065039
tp3014
a(I3123275
I3123632
tp3015
a(I3147335
I3147471
tp3016
aa(lp3017
(I4234
I4396
tp3018
a(I47356
I48005
tp3019
a(I109755
I110199
tp3020
a(I151097
I151602
tp3021
a(I251001
I252967
tp3022
a(I423181
I423666
tp3023
a(I477491
I477986
tp3024
a(I516120
I516516
tp3025
a(I537890
I538089
tp3026
a(I576147
I577047
tp3027
a(I689003
I689774
tp3028
a(I759390
I759700
tp3029
a(I798136
I798588
tp3030
a(I835199
I835460
tp3031
a(I897976
I899182
tp3032
a(I1004735
I1005462
tp3033
a(I1070657
I1071092
tp3034
a(I1127243
I1127791
tp3035
a(I1191901
I1192682
tp3036
a(I1259164
I1259793
tp3037
a(I1318313
I1318888
tp3038
a(I1368652
I1368920
tp3039
a(I1419317
I1420309
tp3040
a(I1503541
I1504053
tp3041
a(I1569886
I1570552
tp3042
a(I1640548
I1641092
tp3043
a(I1680109
I1680340
tp3044
a(I1726949
I1727685
tp3045
a(I1791845
I1792070
tp3046
a(I1819899
I1820238
tp3047
a(I1847616
I1847828
tp3048
a(I1887872
I1888708
tp3049
a(I1956779
I1957159
tp3050
a(I1982468
I1982640
tp3051
a(I2057176
I2058813
tp3052
a(I2202082
I2203141
tp3053
a(I2294404
I2294894
tp3054
a(I2342770
I2343204
tp3055
a(I2417267
I2418271
tp3056
a(I2490009
I2490242
tp3057
a(I2528631
I2529184
tp3058
a(I2573087
I2573296
tp3059
a(I2614916
I2615527
tp3060
a(I2720748
I2722245
tp3061
a(I2856209
I2856583
tp3062
a(I2915067
I2915715
tp3063
a(I2968235
I2968387
tp3064
a(I2997170
I2997777
tp3065
a(I3065039
I3065599
tp3066
a(I3123632
I3124008
tp3067
a(I3147471
I3147608
tp3068
aa(lp3069
(I4396
I4571
tp3070
a(I48005
I48652
tp3071
a(I110199
I110664
tp3072
a(I151602
I152116
tp3073
a(I252967
I255036
tp3074
a(I423666
I424173
tp3075
a(I477986
I478508
tp3076
a(I516516
I516929
tp3077
a(I538089
I538289
tp3078
a(I577047
I577956
tp3079
a(I689774
I690581
tp3080
a(I759700
I760011
tp3081
a(I798588
I799071
tp3082
a(I835460
I835710
tp3083
a(I899182
I900461
tp3084
a(I1005462
I1006179
tp3085
a(I1071092
I1071549
tp3086
a(I1127791
I1128354
tp3087
a(I1192682
I1193452
tp3088
a(I1259793
I1260458
tp3089
a(I1318888
I1319473
tp3090
a(I1368920
I1369195
tp3091
a(I1420309
I1421361
tp3092
a(I1504053
I1504598
tp3093
a(I1570552
I1571222
tp3094
a(I1641092
I1641656
tp3095
a(I1680340
I1680587
tp3096
a(I1727685
I1728428
tp3097
a(I1792070
I1792285
tp3098
a(I1820238
I1820581
tp3099
a(I1847828
I1848038
tp3100
a(I1888708
I1889586
tp3101
a(I1957159
I1957553
tp3102
a(I1982640
I1982829
tp3103
a(I2058813
I2060559
tp3104
a(I2203141
I2204213
tp3105
a(I2294894
I2295414
tp3106
a(I2343204
I2343648
tp3107
a(I2418271
I2419346
tp3108
a(I2490242
I2490481
tp3109
a(I2529184
I2529738
tp3110
a(I2573296
I2573522
tp3111
a(I2615527
I2616168
tp3112
a(I2722245
I2723813
tp3113
a(I2856583
I2856969
tp3114
a(I2915715
I2916379
tp3115
a(I2968387
I2968545
tp3116
a(I2997777
I2998412
tp3117
a(I3065599
I3066168
tp3118
a(I3124008
I3124372
tp3119
a(I3147608
I3147748
tp3120
aa(lp3121
(I4571
I4763
tp3122
a(I48652
I49312
tp3123
a(I110664
I111108
tp3124
a(I152116
I152659
tp3125
a(I255036
I257215
tp3126
a(I424173
I424727
tp3127
a(I478508
I479041
tp3128
a(I516929
I517325
tp3129
a(I538289
I538483
tp3130
a(I577956
I578952
tp3131
a(I690581
I691411
tp3132
a(I760011
I760335
tp3133
a(I799071
I799557
tp3134
a(I835710
I835975
tp3135
a(I900461
I901805
tp3136
a(I1006179
I1006965
tp3137
a(I1071549
I1072021
tp3138
a(I1128354
I1128933
tp3139
a(I1193452
I1194252
tp3140
a(I1260458
I1261143
tp3141
a(I1319473
I1320053
tp3142
a(I1369195
I1369486
tp3143
a(I1421361
I1422476
tp3144
a(I1504598
I1505170
tp3145
a(I1571222
I1571924
tp3146
a(I1641656
I1642241
tp3147
a(I1680587
I1680834
tp3148
a(I1728428
I1729211
tp3149
a(I1792285
I1792509
tp3150
a(I1820581
I1820943
tp3151
a(I1848038
I1848265
tp3152
a(I1889586
I1890502
tp3153
a(I1957553
I1957943
tp3154
a(I1982829
I1983020
tp3155
a(I2060559
I2062399
tp3156
a(I2204213
I2205395
tp3157
a(I2295414
I2295949
tp3158
a(I2343648
I2344121
tp3159
a(I2419346
I2420454
tp3160
a(I2490481
I2490718
tp3161
a(I2529738
I2530306
tp3162
a(I2573522
I2573746
tp3163
a(I2616168
I2616835
tp3164
a(I2723813
I2725457
tp3165
a(I2856969
I2857377
tp3166
a(I2916379
I2917064
tp3167
a(I2968545
I2968717
tp3168
a(I2998412
I2999060
tp3169
a(I3066168
I3066741
tp3170
a(I3124372
I3124743
tp3171
a(I3147748
I3147907
tp3172
aa(lp3173
(I4763
I4939
tp3174
a(I49312
I50002
tp3175
a(I111108
I111560
tp3176
a(I152659
I153219
tp3177
a(I257215
I259339
tp3178
a(I424727
I425256
tp3179
a(I479041
I479556
tp3180
a(I517325
I517713
tp3181
a(I538483
I538676
tp3182
a(I578952
I579979
tp3183
a(I691411
I692260
tp3184
a(I760335
I760643
tp3185
a(I799557
I800041
tp3186
a(I835975
I836244
tp3187
a(I901805
I903185
tp3188
a(I1006965
I1007766
tp3189
a(I1072021
I1072473
tp3190
a(I1128933
I1129524
tp3191
a(I1194252
I1195039
tp3192
a(I1261143
I1261819
tp3193
a(I1320053
I1320632
tp3194
a(I1369486
I1369766
tp3195
a(I1422476
I1423576
tp3196
a(I1505170
I1505729
tp3197
a(I1571924
I1572653
tp3198
a(I1642241
I1642846
tp3199
a(I1680834
I1681083
tp3200
a(I1729211
I1730008
tp3201
a(I1792509
I1792725
tp3202
a(I1820943
I1821310
tp3203
a(I1848265
I1848484
tp3204
a(I1890502
I1891395
tp3205
a(I1957943
I1958372
tp3206
a(I1983020
I1983212
tp3207
a(I2062399
I2064192
tp3208
a(I2205395
I2206575
tp3209
a(I2295949
I2296498
tp3210
a(I2344121
I2344594
tp3211
a(I2420454
I2421561
tp3212
a(I2490718
I2490956
tp3213
a(I2530306
I2530880
tp3214
a(I2573746
I2573971
tp3215
a(I2616835
I2617517
tp3216
a(I2725457
I2727101
tp3217
a(I2857377
I2857808
tp3218
a(I2917064
I2917735
tp3219
a(I2968717
I2968880
tp3220
a(I2999060
I2999684
tp3221
a(I3066741
I3067316
tp3222
a(I3124743
I3125135
tp3223
a(I3147907
I3148041
tp3224
aa(lp3225
(I4939
I5109
tp3226
a(I50002
I50648
tp3227
a(I111560
I112004
tp3228
a(I153219
I153768
tp3229
a(I259339
I261363
tp3230
a(I425256
I425794
tp3231
a(I479556
I480031
tp3232
a(I517713
I518076
tp3233
a(I538676
I538861
tp3234
a(I579979
I580979
tp3235
a(I692260
I693100
tp3236
a(I760643
I760939
tp3237
a(I800041
I800486
tp3238
a(I836244
I836508
tp3239
a(I903185
I904516
tp3240
a(I1007766
I1008508
tp3241
a(I1072473
I1072895
tp3242
a(I1129524
I1130103
tp3243
a(I1195039
I1195811
tp3244
a(I1261819
I1262457
tp3245
a(I1320632
I1321181
tp3246
a(I1369766
I1370032
tp3247
a(I1423576
I1424634
tp3248
a(I1505729
I1506239
tp3249
a(I1572653
I1573360
tp3250
a(I1642846
I1643428
tp3251
a(I1681083
I1681314
tp3252
a(I1730008
I1730785
tp3253
a(I1792725
I1792930
tp3254
a(I1821310
I1821657
tp3255
a(I1848484
I1848695
tp3256
a(I1891395
I1892277
tp3257
a(I1958372
I1958752
tp3258
a(I1983212
I1983393
tp3259
a(I2064192
I2065954
tp3260
a(I2206575
I2207697
tp3261
a(I2296498
I2297031
tp3262
a(I2344594
I2345045
tp3263
a(I2421561
I2422637
tp3264
a(I2490956
I2491180
tp3265
a(I2530880
I2531439
tp3266
a(I2573971
I2574198
tp3267
a(I2617517
I2618180
tp3268
a(I2727101
I2728727
tp3269
a(I2857808
I2858216
tp3270
a(I2917735
I2918402
tp3271
a(I2968880
I2969034
tp3272
a(I2999684
I3000244
tp3273
a(I3067316
I3067869
tp3274
a(I3125135
I3125518
tp3275
a(I3148041
I3148176
tp3276
aa(lp3277
(I5109
I5269
tp3278
a(I50648
I51306
tp3279
a(I112004
I112457
tp3280
a(I153768
I154336
tp3281
a(I261363
I263432
tp3282
a(I425794
I426340
tp3283
a(I480031
I480485
tp3284
a(I518076
I518420
tp3285
a(I538861
I539016
tp3286
a(I580979
I581996
tp3287
a(I693100
I693926
tp3288
a(I760939
I761251
tp3289
a(I800486
I800917
tp3290
a(I836508
I836768
tp3291
a(I904516
I905849
tp3292
a(I1008508
I1009246
tp3293
a(I1072895
I1073321
tp3294
a(I1130103
I1130683
tp3295
a(I1195811
I1196607
tp3296
a(I1262457
I1263089
tp3297
a(I1321181
I1321725
tp3298
a(I1370032
I1370285
tp3299
a(I1424634
I1425718
tp3300
a(I1506239
I1506743
tp3301
a(I1573360
I1574038
tp3302
a(I1643428
I1643997
tp3303
a(I1681314
I1681538
tp3304
a(I1730785
I1731555
tp3305
a(I1792930
I1793150
tp3306
a(I1821657
I1821985
tp3307
a(I1848695
I1848897
tp3308
a(I1892277
I1893155
tp3309
a(I1958752
I1959132
tp3310
a(I1983393
I1983557
tp3311
a(I2065954
I2067714
tp3312
a(I2207697
I2208809
tp3313
a(I2297031
I2297546
tp3314
a(I2345045
I2345494
tp3315
a(I2422637
I2423692
tp3316
a(I2491180
I2491391
tp3317
a(I2531439
I2532010
tp3318
a(I2574198
I2574411
tp3319
a(I2618180
I2618856
tp3320
a(I2728727
I2730372
tp3321
a(I2858216
I2858641
tp3322
a(I2918402
I2919069
tp3323
a(I2969034
I2969177
tp3324
a(I3000244
I3000808
tp3325
a(I3067869
I3068424
tp3326
a(I3125518
I3125893
tp3327
a(I3148176
I3148313
tp3328
aa(lp3329
(I5269
I5416
tp3330
a(I51306
I51952
tp3331
a(I112457
I112922
tp3332
a(I154336
I154912
tp3333
a(I263432
I265568
tp3334
a(I426340
I426867
tp3335
a(I480485
I480943
tp3336
a(I518420
I518746
tp3337
a(I539016
I539174
tp3338
a(I581996
I583045
tp3339
a(I693926
I694753
tp3340
a(I761251
I761556
tp3341
a(I800917
I801359
tp3342
a(I836768
I837036
tp3343
a(I905849
I907163
tp3344
a(I1009246
I1010000
tp3345
a(I1073321
I1073730
tp3346
a(I1130683
I1131247
tp3347
a(I1196607
I1197366
tp3348
a(I1263089
I1263726
tp3349
a(I1321725
I1322264
tp3350
a(I1370285
I1370540
tp3351
a(I1425718
I1426780
tp3352
a(I1506743
I1507273
tp3353
a(I1574038
I1574746
tp3354
a(I1643997
I1644564
tp3355
a(I1681538
I1681767
tp3356
a(I1731555
I1732332
tp3357
a(I1793150
I1793358
tp3358
a(I1821985
I1822325
tp3359
a(I1848897
I1849113
tp3360
a(I1893155
I1894036
tp3361
a(I1959132
I1959533
tp3362
a(I1983557
I1983724
tp3363
a(I2067714
I2069499
tp3364
a(I2208809
I2209964
tp3365
a(I2297546
I2298076
tp3366
a(I2345494
I2345949
tp3367
a(I2423692
I2424759
tp3368
a(I2491391
I2491589
tp3369
a(I2532010
I2532559
tp3370
a(I2574411
I2574631
tp3371
a(I2618856
I2619541
tp3372
a(I2730372
I2732036
tp3373
a(I2858641
I2859078
tp3374
a(I2919069
I2919730
tp3375
a(I2969177
I2969317
tp3376
a(I3000808
I3001393
tp3377
a(I3068424
I3069007
tp3378
a(I3125893
I3126239
tp3379
a(I3148313
I3148446
tp3380
aa(lp3381
(I5416
I5577
tp3382
a(I51952
I52595
tp3383
a(I112922
I113379
tp3384
a(I154912
I155490
tp3385
a(I265568
I267766
tp3386
a(I426867
I427409
tp3387
a(I480943
I481401
tp3388
a(I518746
I519076
tp3389
a(I539174
I539340
tp3390
a(I583045
I584099
tp3391
a(I694753
I695569
tp3392
a(I761556
I761879
tp3393
a(I801359
I801807
tp3394
a(I837036
I837315
tp3395
a(I907163
I908551
tp3396
a(I1010000
I1010764
tp3397
a(I1073730
I1074187
tp3398
a(I1131247
I1131824
tp3399
a(I1197366
I1198177
tp3400
a(I1263726
I1264350
tp3401
a(I1322264
I1322799
tp3402
a(I1370540
I1370783
tp3403
a(I1426780
I1427838
tp3404
a(I1507273
I1507796
tp3405
a(I1574746
I1575445
tp3406
a(I1644564
I1645139
tp3407
a(I1681767
I1681994
tp3408
a(I1732332
I1733094
tp3409
a(I1793358
I1793567
tp3410
a(I1822325
I1822670
tp3411
a(I1849113
I1849321
tp3412
a(I1894036
I1894921
tp3413
a(I1959533
I1959943
tp3414
a(I1983724
I1983898
tp3415
a(I2069499
I2071358
tp3416
a(I2209964
I2211089
tp3417
a(I2298076
I2298606
tp3418
a(I2345949
I2346402
tp3419
a(I2424759
I2425873
tp3420
a(I2491589
I2491773
tp3421
a(I2532559
I2533090
tp3422
a(I2574631
I2574837
tp3423
a(I2619541
I2620237
tp3424
a(I2732036
I2733748
tp3425
a(I2859078
I2859532
tp3426
a(I2919730
I2920400
tp3427
a(I2969317
I2969457
tp3428
a(I3001393
I3001989
tp3429
a(I3069007
I3069589
tp3430
a(I3126239
I3126607
tp3431
a(I3148446
I3148585
tp3432
aa(lp3433
(I5577
I5739
tp3434
a(I52595
I53235
tp3435
a(I113379
I113832
tp3436
a(I155490
I156070
tp3437
a(I267766
I270017
tp3438
a(I427409
I427958
tp3439
a(I481401
I481833
tp3440
a(I519076
I519386
tp3441
a(I539340
I539493
tp3442
a(I584099
I585143
tp3443
a(I695569
I696376
tp3444
a(I761879
I762193
tp3445
a(I801807
I802269
tp3446
a(I837315
I837599
tp3447
a(I908551
I909937
tp3448
a(I1010764
I1011531
tp3449
a(I1074187
I1074646
tp3450
a(I1131824
I1132400
tp3451
a(I1198177
I1199023
tp3452
a(I1264350
I1264979
tp3453
a(I1322799
I1323344
tp3454
a(I1370783
I1371017
tp3455
a(I1427838
I1428884
tp3456
a(I1507796
I1508320
tp3457
a(I1575445
I1576146
tp3458
a(I1645139
I1645708
tp3459
a(I1681994
I1682237
tp3460
a(I1733094
I1733855
tp3461
a(I1793567
I1793782
tp3462
a(I1822670
I1822995
tp3463
a(I1849321
I1849526
tp3464
a(I1894921
I1895798
tp3465
a(I1959943
I1960339
tp3466
a(I1983898
I1984072
tp3467
a(I2071358
I2073214
tp3468
a(I2211089
I2212206
tp3469
a(I2298606
I2299138
tp3470
a(I2346402
I2346887
tp3471
a(I2425873
I2426961
tp3472
a(I2491773
I2491960
tp3473
a(I2533090
I2533649
tp3474
a(I2574837
I2575059
tp3475
a(I2620237
I2620898
tp3476
a(I2733748
I2735478
tp3477
a(I2859532
I2860020
tp3478
a(I2920400
I2921084
tp3479
a(I2969457
I2969587
tp3480
a(I3001989
I3002621
tp3481
a(I3069589
I3070158
tp3482
a(I3126607
I3126964
tp3483
a(I3148585
I3148736
tp3484
aa(lp3485
(I5739
I5918
tp3486
a(I53235
I53926
tp3487
a(I113832
I114303
tp3488
a(I156070
I156676
tp3489
a(I270017
I272381
tp3490
a(I427958
I428505
tp3491
a(I481833
I482289
tp3492
a(I519386
I519726
tp3493
a(I539493
I539658
tp3494
a(I585143
I586219
tp3495
a(I696376
I697271
tp3496
a(I762193
I762510
tp3497
a(I802269
I802766
tp3498
a(I837599
I837897
tp3499
a(I909937
I911376
tp3500
a(I1011531
I1012303
tp3501
a(I1074646
I1075098
tp3502
a(I1132400
I1132998
tp3503
a(I1199023
I1199925
tp3504
a(I1264979
I1265613
tp3505
a(I1323344
I1323925
tp3506
a(I1371017
I1371273
tp3507
a(I1428884
I1429979
tp3508
a(I1508320
I1508890
tp3509
a(I1576146
I1576888
tp3510
a(I1645708
I1646300
tp3511
a(I1682237
I1682481
tp3512
a(I1733855
I1734662
tp3513
a(I1793782
I1793998
tp3514
a(I1822995
I1823348
tp3515
a(I1849526
I1849736
tp3516
a(I1895798
I1896719
tp3517
a(I1960339
I1960741
tp3518
a(I1984072
I1984259
tp3519
a(I2073214
I2075131
tp3520
a(I2212206
I2213387
tp3521
a(I2299138
I2299688
tp3522
a(I2346887
I2347411
tp3523
a(I2426961
I2428096
tp3524
a(I2491960
I2492160
tp3525
a(I2533649
I2534254
tp3526
a(I2575059
I2575281
tp3527
a(I2620898
I2621608
tp3528
a(I2735478
I2737284
tp3529
a(I2860020
I2860513
tp3530
a(I2921084
I2921799
tp3531
a(I2969587
I2969728
tp3532
a(I3002621
I3003297
tp3533
a(I3070158
I3070744
tp3534
a(I3126964
I3127341
tp3535
a(I3148736
I3148901
tp3536
aa(lp3537
(I5918
I6098
tp3538
a(I53926
I54599
tp3539
a(I114303
I114767
tp3540
a(I156676
I157273
tp3541
a(I272381
I274798
tp3542
a(I428505
I429063
tp3543
a(I482289
I482745
tp3544
a(I519726
I520049
tp3545
a(I539658
I539819
tp3546
a(I586219
I587330
tp3547
a(I697271
I698142
tp3548
a(I762510
I762818
tp3549
a(I802766
I803238
tp3550
a(I837897
I838221
tp3551
a(I911376
I912802
tp3552
a(I1012303
I1013066
tp3553
a(I1075098
I1075541
tp3554
a(I1132998
I1133589
tp3555
a(I1199925
I1200803
tp3556
a(I1265613
I1266257
tp3557
a(I1323925
I1324487
tp3558
a(I1371273
I1371526
tp3559
a(I1429979
I1431078
tp3560
a(I1508890
I1509471
tp3561
a(I1576888
I1577642
tp3562
a(I1646300
I1646893
tp3563
a(I1682481
I1682714
tp3564
a(I1734662
I1735488
tp3565
a(I1793998
I1794216
tp3566
a(I1823348
I1823697
tp3567
a(I1849736
I1849939
tp3568
a(I1896719
I1897669
tp3569
a(I1960741
I1961145
tp3570
a(I1984259
I1984459
tp3571
a(I2075131
I2076994
tp3572
a(I2213387
I2214532
tp3573
a(I2299688
I2300256
tp3574
a(I2347411
I2347940
tp3575
a(I2428096
I2429243
tp3576
a(I2492160
I2492356
tp3577
a(I2534254
I2534837
tp3578
a(I2575281
I2575497
tp3579
a(I2621608
I2622339
tp3580
a(I2737284
I2739148
tp3581
a(I2860513
I2861024
tp3582
a(I2921799
I2922502
tp3583
a(I2969728
I2969884
tp3584
a(I3003297
I3003966
tp3585
a(I3070744
I3071361
tp3586
a(I3127341
I3127702
tp3587
a(I3148901
I3149059
tp3588
aa(lp3589
(I6098
I6288
tp3590
a(I54599
I55293
tp3591
a(I114767
I115228
tp3592
a(I157273
I157922
tp3593
a(I274798
I277313
tp3594
a(I429063
I429660
tp3595
a(I482745
I483215
tp3596
a(I520049
I520371
tp3597
a(I539819
I539985
tp3598
a(I587330
I588487
tp3599
a(I698142
I699069
tp3600
a(I762818
I763145
tp3601
a(I803238
I803730
tp3602
a(I838221
I838537
tp3603
a(I912802
I914289
tp3604
a(I1013066
I1013851
tp3605
a(I1075541
I1076006
tp3606
a(I1133589
I1134195
tp3607
a(I1200803
I1201733
tp3608
a(I1266257
I1266921
tp3609
a(I1324487
I1325074
tp3610
a(I1371526
I1371785
tp3611
a(I1431078
I1432206
tp3612
a(I1509471
I1510062
tp3613
a(I1577642
I1578387
tp3614
a(I1646893
I1647473
tp3615
a(I1682714
I1682976
tp3616
a(I1735488
I1736315
tp3617
a(I1794216
I1794438
tp3618
a(I1823697
I1824047
tp3619
a(I1849939
I1850140
tp3620
a(I1897669
I1898644
tp3621
a(I1961145
I1961570
tp3622
a(I1984459
I1984670
tp3623
a(I2076994
I2078825
tp3624
a(I2214532
I2215760
tp3625
a(I2300256
I2300860
tp3626
a(I2347940
I2348505
tp3627
a(I2429243
I2430397
tp3628
a(I2492356
I2492572
tp3629
a(I2534837
I2535433
tp3630
a(I2575497
I2575738
tp3631
a(I2622339
I2623061
tp3632
a(I2739148
I2741079
tp3633
a(I2861024
I2861553
tp3634
a(I2922502
I2923264
tp3635
a(I2969884
I2970030
tp3636
a(I3003966
I3004712
tp3637
a(I3071361
I3071986
tp3638
a(I3127702
I3128070
tp3639
a(I3149059
I3149222
tp3640
aa(lp3641
(I6288
I6478
tp3642
a(I55293
I55972
tp3643
a(I115228
I115703
tp3644
a(I157922
I158602
tp3645
a(I277313
I279928
tp3646
a(I429660
I430273
tp3647
a(I483215
I483662
tp3648
a(I520371
I520690
tp3649
a(I539985
I540159
tp3650
a(I588487
I589697
tp3651
a(I699069
I700000
tp3652
a(I763145
I763494
tp3653
a(I803730
I804223
tp3654
a(I838537
I838854
tp3655
a(I914289
I915817
tp3656
a(I1013851
I1014649
tp3657
a(I1076006
I1076479
tp3658
a(I1134195
I1134785
tp3659
a(I1201733
I1202679
tp3660
a(I1266921
I1267582
tp3661
a(I1325074
I1325674
tp3662
a(I1371785
I1372039
tp3663
a(I1432206
I1433336
tp3664
a(I1510062
I1510699
tp3665
a(I1578387
I1579142
tp3666
a(I1647473
I1648075
tp3667
a(I1682976
I1683222
tp3668
a(I1736315
I1737145
tp3669
a(I1794438
I1794659
tp3670
a(I1824047
I1824426
tp3671
a(I1850140
I1850355
tp3672
a(I1898644
I1899610
tp3673
a(I1961570
I1961987
tp3674
a(I1984670
I1984902
tp3675
a(I2078825
I2080689
tp3676
a(I2215760
I2216967
tp3677
a(I2300860
I2301477
tp3678
a(I2348505
I2349052
tp3679
a(I2430397
I2431562
tp3680
a(I2492572
I2492786
tp3681
a(I2535433
I2536041
tp3682
a(I2575738
I2575974
tp3683
a(I2623061
I2623763
tp3684
a(I2741079
I2743115
tp3685
a(I2861553
I2862082
tp3686
a(I2923264
I2924010
tp3687
a(I2970030
I2970183
tp3688
a(I3004712
I3005469
tp3689
a(I3071986
I3072625
tp3690
a(I3128070
I3128434
tp3691
a(I3149222
I3149417
tp3692
aa(lp3693
(I6478
I6674
tp3694
a(I55972
I56669
tp3695
a(I115703
I116147
tp3696
a(I158602
I159274
tp3697
a(I279928
I282617
tp3698
a(I430273
I430924
tp3699
a(I483662
I484122
tp3700
a(I520690
I521010
tp3701
a(I540159
I540319
tp3702
a(I589697
I590952
tp3703
a(I700000
I700903
tp3704
a(I763494
I763816
tp3705
a(I804223
I804703
tp3706
a(I838854
I839177
tp3707
a(I915817
I917277
tp3708
a(I1014649
I1015430
tp3709
a(I1076479
I1076963
tp3710
a(I1134785
I1135357
tp3711
a(I1202679
I1203605
tp3712
a(I1267582
I1268255
tp3713
a(I1325674
I1326289
tp3714
a(I1372039
I1372300
tp3715
a(I1433336
I1434440
tp3716
a(I1510699
I1511325
tp3717
a(I1579142
I1579866
tp3718
a(I1648075
I1648653
tp3719
a(I1683222
I1683479
tp3720
a(I1737145
I1737959
tp3721
a(I1794659
I1794888
tp3722
a(I1824426
I1824796
tp3723
a(I1850355
I1850581
tp3724
a(I1899610
I1900554
tp3725
a(I1961987
I1962427
tp3726
a(I1984902
I1985133
tp3727
a(I2080689
I2082567
tp3728
a(I2216967
I2218170
tp3729
a(I2301477
I2302083
tp3730
a(I2349052
I2349610
tp3731
a(I2431562
I2432707
tp3732
a(I2492786
I2492993
tp3733
a(I2536041
I2536639
tp3734
a(I2575974
I2576206
tp3735
a(I2623763
I2624455
tp3736
a(I2743115
I2745183
tp3737
a(I2862082
I2862632
tp3738
a(I2924010
I2924762
tp3739
a(I2970183
I2970326
tp3740
a(I3005469
I3006247
tp3741
a(I3072625
I3073268
tp3742
a(I3128434
I3128798
tp3743
a(I3149417
I3149609
tp3744
aa(lp3745
(I6674
I6892
tp3746
a(I56669
I57339
tp3747
a(I116147
I116596
tp3748
a(I159274
I159953
tp3749
a(I282617
I285343
tp3750
a(I430924
I431600
tp3751
a(I484122
I484584
tp3752
a(I521010
I521313
tp3753
a(I540319
I540481
tp3754
a(I590952
I592242
tp3755
a(I700903
I701805
tp3756
a(I763816
I764151
tp3757
a(I804703
I805172
tp3758
a(I839177
I839499
tp3759
a(I917277
I918716
tp3760
a(I1015430
I1016195
tp3761
a(I1076963
I1077462
tp3762
a(I1135357
I1135934
tp3763
a(I1203605
I1204532
tp3764
a(I1268255
I1268942
tp3765
a(I1326289
I1326930
tp3766
a(I1372300
I1372560
tp3767
a(I1434440
I1435510
tp3768
a(I1511325
I1511948
tp3769
a(I1579866
I1580620
tp3770
a(I1648653
I1649231
tp3771
a(I1683479
I1683739
tp3772
a(I1737959
I1738792
tp3773
a(I1794888
I1795119
tp3774
a(I1824796
I1825159
tp3775
a(I1850581
I1850820
tp3776
a(I1900554
I1901495
tp3777
a(I1962427
I1962862
tp3778
a(I1985133
I1985386
tp3779
a(I2082567
I2084471
tp3780
a(I2218170
I2219342
tp3781
a(I2302083
I2302748
tp3782
a(I2349610
I2350149
tp3783
a(I2432707
I2433861
tp3784
a(I2492993
I2493208
tp3785
a(I2536639
I2537226
tp3786
a(I2576206
I2576438
tp3787
a(I2624455
I2625142
tp3788
a(I2745183
I2747294
tp3789
a(I2862632
I2863188
tp3790
a(I2924762
I2925515
tp3791
a(I2970326
I2970479
tp3792
a(I3006247
I3007004
tp3793
a(I3073268
I3073909
tp3794
a(I3128798
I3129158
tp3795
a(I3149609
I3149801
tp3796
aa(lp3797
(I6892
I7116
tp3798
a(I57339
I57982
tp3799
a(I116596
I117054
tp3800
a(I159953
I160602
tp3801
a(I285343
I288055
tp3802
a(I431600
I432234
tp3803
a(I484584
I485034
tp3804
a(I521313
I521609
tp3805
a(I540481
I540630
tp3806
a(I592242
I593501
tp3807
a(I701805
I702683
tp3808
a(I764151
I764490
tp3809
a(I805172
I805641
tp3810
a(I839499
I839796
tp3811
a(I918716
I920140
tp3812
a(I1016195
I1016948
tp3813
a(I1077462
I1077949
tp3814
a(I1135934
I1136480
tp3815
a(I1204532
I1205421
tp3816
a(I1268942
I1269617
tp3817
a(I1326930
I1327558
tp3818
a(I1372560
I1372808
tp3819
a(I1435510
I1436560
tp3820
a(I1511948
I1512539
tp3821
a(I1580620
I1581343
tp3822
a(I1649231
I1649785
tp3823
a(I1683739
I1683996
tp3824
a(I1738792
I1739606
tp3825
a(I1795119
I1795332
tp3826
a(I1825159
I1825508
tp3827
a(I1850820
I1851039
tp3828
a(I1901495
I1902416
tp3829
a(I1962862
I1963272
tp3830
a(I1985386
I1985616
tp3831
a(I2084471
I2086287
tp3832
a(I2219342
I2220478
tp3833
a(I2302748
I2303391
tp3834
a(I2350149
I2350666
tp3835
a(I2433861
I2434983
tp3836
a(I2493208
I2493417
tp3837
a(I2537226
I2537785
tp3838
a(I2576438
I2576651
tp3839
a(I2625142
I2625814
tp3840
a(I2747294
I2749340
tp3841
a(I2863188
I2863713
tp3842
a(I2925515
I2926258
tp3843
a(I2970479
I2970633
tp3844
a(I3007004
I3007757
tp3845
a(I3073909
I3074543
tp3846
a(I3129158
I3129509
tp3847
a(I3149801
I3149976
tp3848
aa(lp3849
(I7116
I7353
tp3850
a(I57982
I58615
tp3851
a(I117054
I117504
tp3852
a(I160602
I161280
tp3853
a(I288055
I290836
tp3854
a(I432234
I432866
tp3855
a(I485034
I485489
tp3856
a(I521609
I521929
tp3857
a(I540630
I540787
tp3858
a(I593501
I594831
tp3859
a(I702683
I703558
tp3860
a(I764490
I764836
tp3861
a(I805641
I806094
tp3862
a(I839796
I840077
tp3863
a(I920140
I921548
tp3864
a(I1016948
I1017673
tp3865
a(I1077949
I1078427
tp3866
a(I1136480
I1137035
tp3867
a(I1205421
I1206305
tp3868
a(I1269617
I1270312
tp3869
a(I1327558
I1328190
tp3870
a(I1372808
I1373057
tp3871
a(I1436560
I1437619
tp3872
a(I1512539
I1513154
tp3873
a(I1581343
I1582054
tp3874
a(I1649785
I1650355
tp3875
a(I1683996
I1684236
tp3876
a(I1739606
I1740426
tp3877
a(I1795332
I1795553
tp3878
a(I1825508
I1825872
tp3879
a(I1851039
I1851257
tp3880
a(I1902416
I1903334
tp3881
a(I1963272
I1963732
tp3882
a(I1985616
I1985861
tp3883
a(I2086287
I2088199
tp3884
a(I2220478
I2221631
tp3885
a(I2303391
I2304022
tp3886
a(I2350666
I2351162
tp3887
a(I2434983
I2436100
tp3888
a(I2493417
I2493615
tp3889
a(I2537785
I2538362
tp3890
a(I2576651
I2576864
tp3891
a(I2625814
I2626494
tp3892
a(I2749340
I2751440
tp3893
a(I2863713
I2864240
tp3894
a(I2926258
I2927006
tp3895
a(I2970633
I2970787
tp3896
a(I3007757
I3008493
tp3897
a(I3074543
I3075183
tp3898
a(I3129509
I3129838
tp3899
a(I3149976
I3150143
tp3900
aa(lp3901
(I7353
I7589
tp3902
a(I58615
I59256
tp3903
a(I117504
I117961
tp3904
a(I161280
I162015
tp3905
a(I290836
I293735
tp3906
a(I432866
I433531
tp3907
a(I485489
I485972
tp3908
a(I521929
I522254
tp3909
a(I540787
I540944
tp3910
a(I594831
I596247
tp3911
a(I703558
I704481
tp3912
a(I764836
I765141
tp3913
a(I806094
I806555
tp3914
a(I840077
I840366
tp3915
a(I921548
I922990
tp3916
a(I1017673
I1018427
tp3917
a(I1078427
I1078892
tp3918
a(I1137035
I1137575
tp3919
a(I1206305
I1207205
tp3920
a(I1270312
I1271039
tp3921
a(I1328190
I1328843
tp3922
a(I1373057
I1373323
tp3923
a(I1437619
I1438717
tp3924
a(I1513154
I1513779
tp3925
a(I1582054
I1582778
tp3926
a(I1650355
I1650898
tp3927
a(I1684236
I1684482
tp3928
a(I1740426
I1741283
tp3929
a(I1795553
I1795771
tp3930
a(I1825872
I1826213
tp3931
a(I1851257
I1851505
tp3932
a(I1903334
I1904275
tp3933
a(I1963732
I1964172
tp3934
a(I1985861
I1986114
tp3935
a(I2088199
I2090156
tp3936
a(I2221631
I2222798
tp3937
a(I2304022
I2304643
tp3938
a(I2351162
I2351688
tp3939
a(I2436100
I2437291
tp3940
a(I2493615
I2493832
tp3941
a(I2538362
I2538951
tp3942
a(I2576864
I2577070
tp3943
a(I2626494
I2627187
tp3944
a(I2751440
I2753620
tp3945
a(I2864240
I2864752
tp3946
a(I2927006
I2927800
tp3947
a(I2970787
I2970933
tp3948
a(I3008493
I3009249
tp3949
a(I3075183
I3075851
tp3950
a(I3129838
I3130178
tp3951
a(I3150143
I3150311
tp3952
aa(lp3953
(I7589
I7826
tp3954
a(I59256
I59912
tp3955
a(I117961
I118401
tp3956
a(I162015
I162787
tp3957
a(I293735
I296789
tp3958
a(I433531
I434178
tp3959
a(I485972
I486469
tp3960
a(I522254
I522575
tp3961
a(I540944
I541106
tp3962
a(I596247
I597637
tp3963
a(I704481
I705422
tp3964
a(I765141
I765461
tp3965
a(I806555
I806993
tp3966
a(I840366
I840655
tp3967
a(I922990
I924419
tp3968
a(I1018427
I1019174
tp3969
a(I1078892
I1079376
tp3970
a(I1137575
I1138109
tp3971
a(I1207205
I1208071
tp3972
a(I1271039
I1271778
tp3973
a(I1328843
I1329510
tp3974
a(I1373323
I1373583
tp3975
a(I1438717
I1439835
tp3976
a(I1513779
I1514401
tp3977
a(I1582778
I1583500
tp3978
a(I1650898
I1651444
tp3979
a(I1684482
I1684703
tp3980
a(I1741283
I1742164
tp3981
a(I1795771
I1795988
tp3982
a(I1826213
I1826555
tp3983
a(I1851505
I1851740
tp3984
a(I1904275
I1905277
tp3985
a(I1964172
I1964621
tp3986
a(I1986114
I1986370
tp3987
a(I2090156
I2092193
tp3988
a(I2222798
I2223985
tp3989
a(I2304643
I2305242
tp3990
a(I2351688
I2352224
tp3991
a(I2437291
I2438505
tp3992
a(I2493832
I2494039
tp3993
a(I2538951
I2539512
tp3994
a(I2577070
I2577272
tp3995
a(I2627187
I2627882
tp3996
a(I2753620
I2755779
tp3997
a(I2864752
I2865286
tp3998
a(I2927800
I2928603
tp3999
a(I2970933
I2971084
tp4000
a(I3009249
I3010033
tp4001
a(I3075851
I3076510
tp4002
a(I3130178
I3130507
tp4003
a(I3150311
I3150463
tp4004
aa(lp4005
(I7826
I8055
tp4006
a(I59912
I60566
tp4007
a(I118401
I118849
tp4008
a(I162787
I163559
tp4009
a(I296789
I299878
tp4010
a(I434178
I434825
tp4011
a(I486469
I486981
tp4012
a(I522575
I522900
tp4013
a(I541106
I541279
tp4014
a(I597637
I599103
tp4015
a(I705422
I706412
tp4016
a(I765461
I765757
tp4017
a(I806993
I807442
tp4018
a(I840655
I840915
tp4019
a(I924419
I925902
tp4020
a(I1019174
I1019948
tp4021
a(I1079376
I1079847
tp4022
a(I1138109
I1138666
tp4023
a(I1208071
I1208900
tp4024
a(I1271778
I1272546
tp4025
a(I1329510
I1330216
tp4026
a(I1373583
I1373826
tp4027
a(I1439835
I1440987
tp4028
a(I1514401
I1515034
tp4029
a(I1583500
I1584230
tp4030
a(I1651444
I1651968
tp4031
a(I1684703
I1684920
tp4032
a(I1742164
I1743054
tp4033
a(I1795988
I1796180
tp4034
a(I1826555
I1826899
tp4035
a(I1851740
I1851984
tp4036
a(I1905277
I1906297
tp4037
a(I1964621
I1965066
tp4038
a(I1986370
I1986644
tp4039
a(I2092193
I2094248
tp4040
a(I2223985
I2225162
tp4041
a(I2305242
I2305815
tp4042
a(I2352224
I2352738
tp4043
a(I2438505
I2439739
tp4044
a(I2494039
I2494264
tp4045
a(I2539512
I2540095
tp4046
a(I2577272
I2577481
tp4047
a(I2627882
I2628608
tp4048
a(I2755779
I2757971
tp4049
a(I2865286
I2865803
tp4050
a(I2928603
I2929444
tp4051
a(I2971084
I2971233
tp4052
a(I3010033
I3010834
tp4053
a(I3076510
I3077163
tp4054
a(I3130507
I3130835
tp4055
a(I3150463
I3150592
tp4056
aa(lp4057
(I8055
I8266
tp4058
a(I60566
I61226
tp4059
a(I118849
I119312
tp4060
a(I163559
I164371
tp4061
a(I299878
I303191
tp4062
a(I434825
I435469
tp4063
a(I486981
I487506
tp4064
a(I522900
I523264
tp4065
a(I541279
I541458
tp4066
a(I599103
I600632
tp4067
a(I706412
I707423
tp4068
a(I765757
I766068
tp4069
a(I807442
I807903
tp4070
a(I840915
I841199
tp4071
a(I925902
I927427
tp4072
a(I1019948
I1020751
tp4073
a(I1079847
I1080343
tp4074
a(I1138666
I1139232
tp4075
a(I1208900
I1209754
tp4076
a(I1272546
I1273367
tp4077
a(I1330216
I1330938
tp4078
a(I1373826
I1374076
tp4079
a(I1440987
I1442158
tp4080
a(I1515034
I1515684
tp4081
a(I1584230
I1584992
tp4082
a(I1651968
I1652516
tp4083
a(I1684920
I1685133
tp4084
a(I1743054
I1743983
tp4085
a(I1796180
I1796387
tp4086
a(I1826899
I1827232
tp4087
a(I1851984
I1852240
tp4088
a(I1906297
I1907346
tp4089
a(I1965066
I1965497
tp4090
a(I1986644
I1986911
tp4091
a(I2094248
I2096369
tp4092
a(I2225162
I2226371
tp4093
a(I2305815
I2306412
tp4094
a(I2352738
I2353298
tp4095
a(I2439739
I2440981
tp4096
a(I2494264
I2494493
tp4097
a(I2540095
I2540724
tp4098
a(I2577481
I2577678
tp4099
a(I2628608
I2629365
tp4100
a(I2757971
I2760120
tp4101
a(I2865803
I2866343
tp4102
a(I2929444
I2930314
tp4103
a(I2971233
I2971381
tp4104
a(I3010834
I3011645
tp4105
a(I3077163
I3077827
tp4106
a(I3130835
I3131153
tp4107
a(I3150592
I3150717
tp4108
aa(lp4109
(I8266
I8495
tp4110
a(I61226
I61921
tp4111
a(I119312
I119756
tp4112
a(I164371
I165193
tp4113
a(I303191
I306731
tp4114
a(I435469
I436115
tp4115
a(I487506
I488052
tp4116
a(I523264
I523391
tp4117
a(I541458
I541636
tp4118
a(I600632
I602223
tp4119
a(I707423
I708492
tp4120
a(I766068
I766393
tp4121
a(I807903
I808368
tp4122
a(I841199
I841476
tp4123
a(I927427
I929013
tp4124
a(I1020751
I1021568
tp4125
a(I1080343
I1080835
tp4126
a(I1139232
I1139811
tp4127
a(I1209754
I1210585
tp4128
a(I1273367
I1274214
tp4129
a(I1330938
I1331683
tp4130
a(I1374076
I1374342
tp4131
a(I1442158
I1443382
tp4132
a(I1515684
I1516361
tp4133
a(I1584992
I1585792
tp4134
a(I1652516
I1653039
tp4135
a(I1685133
I1685344
tp4136
a(I1743983
I1744957
tp4137
a(I1796387
I1796583
tp4138
a(I1827232
I1827574
tp4139
a(I1852240
I1852512
tp4140
a(I1907346
I1908448
tp4141
a(I1965497
I1965922
tp4142
a(I1986911
I1987223
tp4143
a(I2096369
I2098663
tp4144
a(I2226371
I2227654
tp4145
a(I2306412
I2307007
tp4146
a(I2353298
I2353866
tp4147
a(I2440981
I2442281
tp4148
a(I2494493
I2494721
tp4149
a(I2540724
I2541352
tp4150
a(I2577678
I2577881
tp4151
a(I2629365
I2630146
tp4152
a(I2760120
I2762452
tp4153
a(I2866343
I2866884
tp4154
a(I2930314
I2931213
tp4155
a(I2971381
I2971535
tp4156
a(I3011645
I3012521
tp4157
a(I3077827
I3078539
tp4158
a(I3131153
I3131474
tp4159
a(I3150717
I3150851
tp4160
aa(lp4161
(I8495
I8710
tp4162
a(I61921
I62627
tp4163
a(I119756
I120228
tp4164
a(I165193
I166061
tp4165
a(I306731
I310473
tp4166
a(I436115
I436803
tp4167
a(I488052
I488603
tp4168
a(I523391
I523684
tp4169
a(I541636
I541813
tp4170
a(I602223
I603859
tp4171
a(I708492
I709586
tp4172
a(I766393
I766741
tp4173
a(I808368
I808853
tp4174
a(I841476
I841759
tp4175
a(I929013
I930660
tp4176
a(I1021568
I1022441
tp4177
a(I1080835
I1081324
tp4178
a(I1139811
I1140386
tp4179
a(I1210585
I1211419
tp4180
a(I1274214
I1275068
tp4181
a(I1331683
I1332476
tp4182
a(I1374342
I1374596
tp4183
a(I1443382
I1444696
tp4184
a(I1516361
I1517044
tp4185
a(I1585792
I1586615
tp4186
a(I1653039
I1653586
tp4187
a(I1685344
I1685555
tp4188
a(I1744957
I1745948
tp4189
a(I1796583
I1796769
tp4190
a(I1827574
I1827923
tp4191
a(I1852512
I1852786
tp4192
a(I1908448
I1909588
tp4193
a(I1965922
I1966380
tp4194
a(I1987223
I1987560
tp4195
a(I2098663
I2100984
tp4196
a(I2227654
I2228961
tp4197
a(I2307007
I2307595
tp4198
a(I2353866
I2354468
tp4199
a(I2442281
I2443638
tp4200
a(I2494721
I2494965
tp4201
a(I2541352
I2542015
tp4202
a(I2577881
I2578085
tp4203
a(I2630146
I2630937
tp4204
a(I2762452
I2764832
tp4205
a(I2866884
I2867419
tp4206
a(I2931213
I2932146
tp4207
a(I2971535
I2971688
tp4208
a(I3012521
I3013416
tp4209
a(I3078539
I3079261
tp4210
a(I3131474
I3131799
tp4211
a(I3150851
I3150977
tp4212
aa(lp4213
(I8710
I8937
tp4214
a(I62627
I63319
tp4215
a(I120228
I120677
tp4216
a(I166061
I166943
tp4217
a(I310473
I314184
tp4218
a(I436803
I437507
tp4219
a(I488603
I489152
tp4220
a(I523684
I524051
tp4221
a(I541813
I542003
tp4222
a(I603859
I605498
tp4223
a(I709586
I710699
tp4224
a(I766741
I767065
tp4225
a(I808853
I809327
tp4226
a(I841759
I842063
tp4227
a(I930660
I932330
tp4228
a(I1022441
I1023324
tp4229
a(I1081324
I1081803
tp4230
a(I1140386
I1140988
tp4231
a(I1211419
I1212282
tp4232
a(I1275068
I1275902
tp4233
a(I1332476
I1333258
tp4234
a(I1374596
I1374848
tp4235
a(I1444696
I1446022
tp4236
a(I1517044
I1517746
tp4237
a(I1586615
I1587474
tp4238
a(I1653586
I1654143
tp4239
a(I1685555
I1685766
tp4240
a(I1745948
I1746954
tp4241
a(I1796769
I1796962
tp4242
a(I1827923
I1828265
tp4243
a(I1852786
I1853039
tp4244
a(I1909588
I1910723
tp4245
a(I1966380
I1966850
tp4246
a(I1987560
I1987912
tp4247
a(I2100984
I2103324
tp4248
a(I2228961
I2230308
tp4249
a(I2307595
I2308193
tp4250
a(I2354468
I2355067
tp4251
a(I2443638
I2444993
tp4252
a(I2494965
I2495200
tp4253
a(I2542015
I2542670
tp4254
a(I2578085
I2578288
tp4255
a(I2630937
I2631750
tp4256
a(I2764832
I2767225
tp4257
a(I2867419
I2867966
tp4258
a(I2932146
I2933059
tp4259
a(I2971688
I2971832
tp4260
a(I3013416
I3014331
tp4261
a(I3079261
I3079982
tp4262
a(I3131799
I3132135
tp4263
a(I3150977
I3151106
tp4264
aa(lp4265
(I8937
I9149
tp4266
a(I63319
I64039
tp4267
a(I120677
I121148
tp4268
a(I166943
I167858
tp4269
a(I314184
I317918
tp4270
a(I437507
I438258
tp4271
a(I489152
I489705
tp4272
a(I524051
I524392
tp4273
a(I542003
I542198
tp4274
a(I605498
I607198
tp4275
a(I710699
I711852
tp4276
a(I767065
I767372
tp4277
a(I809327
I809817
tp4278
a(I842063
I842355
tp4279
a(I932330
I933989
tp4280
a(I1023324
I1024167
tp4281
a(I1081803
I1082296
tp4282
a(I1140988
I1141604
tp4283
a(I1212282
I1213108
tp4284
a(I1275902
I1276735
tp4285
a(I1333258
I1334056
tp4286
a(I1374848
I1375092
tp4287
a(I1446022
I1447348
tp4288
a(I1517746
I1518438
tp4289
a(I1587474
I1588304
tp4290
a(I1654143
I1654698
tp4291
a(I1685766
I1685974
tp4292
a(I1746954
I1747996
tp4293
a(I1796962
I1797156
tp4294
a(I1828265
I1828610
tp4295
a(I1853039
I1853296
tp4296
a(I1910723
I1911850
tp4297
a(I1966850
I1967321
tp4298
a(I1987912
I1988272
tp4299
a(I2103324
I2105656
tp4300
a(I2230308
I2231628
tp4301
a(I2308193
I2308841
tp4302
a(I2355067
I2355687
tp4303
a(I2444993
I2446372
tp4304
a(I2495200
I2495446
tp4305
a(I2542670
I2543331
tp4306
a(I2578288
I2578492
tp4307
a(I2631750
I2632589
tp4308
a(I2767225
I2769712
tp4309
a(I2867966
I2868538
tp4310
a(I2933059
I2934034
tp4311
a(I2971832
I2971981
tp4312
a(I3014331
I3015293
tp4313
a(I3079982
I3080724
tp4314
a(I3132135
I3132451
tp4315
a(I3151106
I3151234
tp4316
aa(lp4317
(I9149
I9356
tp4318
a(I64039
I64750
tp4319
a(I121148
I121622
tp4320
a(I167858
I168788
tp4321
a(I317918
I321679
tp4322
a(I438258
I438953
tp4323
a(I489705
I490268
tp4324
a(I524392
I524716
tp4325
a(I542198
I542372
tp4326
a(I607198
I608862
tp4327
a(I711852
I712968
tp4328
a(I767372
I767685
tp4329
a(I809817
I810330
tp4330
a(I842355
I842657
tp4331
a(I933989
I935696
tp4332
a(I1024167
I1025052
tp4333
a(I1082296
I1082800
tp4334
a(I1141604
I1142202
tp4335
a(I1213108
I1213947
tp4336
a(I1276735
I1277542
tp4337
a(I1334056
I1334834
tp4338
a(I1375092
I1375335
tp4339
a(I1447348
I1448642
tp4340
a(I1518438
I1519117
tp4341
a(I1588304
I1589147
tp4342
a(I1654698
I1655246
tp4343
a(I1685974
I1686178
tp4344
a(I1747996
I1749000
tp4345
a(I1797156
I1797344
tp4346
a(I1828610
I1828976
tp4347
a(I1853296
I1853546
tp4348
a(I1911850
I1912959
tp4349
a(I1967321
I1967792
tp4350
a(I1988272
I1988631
tp4351
a(I2105656
I2107977
tp4352
a(I2231628
I2232964
tp4353
a(I2308841
I2309466
tp4354
a(I2355687
I2356296
tp4355
a(I2446372
I2447690
tp4356
a(I2495446
I2495694
tp4357
a(I2543331
I2543947
tp4358
a(I2578492
I2578693
tp4359
a(I2632589
I2633424
tp4360
a(I2769712
I2772168
tp4361
a(I2868538
I2869111
tp4362
a(I2934034
I2934941
tp4363
a(I2971981
I2972131
tp4364
a(I3015293
I3016228
tp4365
a(I3080724
I3081464
tp4366
a(I3132451
I3132785
tp4367
a(I3151234
I3151362
tp4368
aa(lp4369
(I9356
I9556
tp4370
a(I64750
I65455
tp4371
a(I121622
I122090
tp4372
a(I168788
I169757
tp4373
a(I321679
I325331
tp4374
a(I438953
I439704
tp4375
a(I490268
I490820
tp4376
a(I524716
I525034
tp4377
a(I542372
I542550
tp4378
a(I608862
I610565
tp4379
a(I712968
I714134
tp4380
a(I767685
I768002
tp4381
a(I810330
I810829
tp4382
a(I842657
I842955
tp4383
a(I935696
I937418
tp4384
a(I1025052
I1025924
tp4385
a(I1082800
I1083308
tp4386
a(I1142202
I1142806
tp4387
a(I1213947
I1214751
tp4388
a(I1277542
I1278372
tp4389
a(I1334834
I1335625
tp4390
a(I1375335
I1375581
tp4391
a(I1448642
I1449939
tp4392
a(I1519117
I1519809
tp4393
a(I1589147
I1589967
tp4394
a(I1655246
I1655773
tp4395
a(I1686178
I1686386
tp4396
a(I1749000
I1750006
tp4397
a(I1797344
I1797517
tp4398
a(I1828976
I1829327
tp4399
a(I1853546
I1853784
tp4400
a(I1912959
I1914077
tp4401
a(I1967792
I1968252
tp4402
a(I1988631
I1989037
tp4403
a(I2107977
I2110292
tp4404
a(I2232964
I2234303
tp4405
a(I2309466
I2310110
tp4406
a(I2356296
I2356932
tp4407
a(I2447690
I2449047
tp4408
a(I2495694
I2495927
tp4409
a(I2543947
I2544540
tp4410
a(I2578693
I2578896
tp4411
a(I2633424
I2634252
tp4412
a(I2772168
I2774702
tp4413
a(I2869111
I2869691
tp4414
a(I2934941
I2935874
tp4415
a(I2972131
I2972278
tp4416
a(I3016228
I3017162
tp4417
a(I3081464
I3082198
tp4418
a(I3132785
I3133105
tp4419
a(I3151362
I3151484
tp4420
aa(lp4421
(I9556
I9750
tp4422
a(I65455
I66166
tp4423
a(I122090
I122565
tp4424
a(I169757
I170710
tp4425
a(I325331
I328944
tp4426
a(I439704
I440455
tp4427
a(I490820
I491338
tp4428
a(I525034
I525324
tp4429
a(I542550
I542738
tp4430
a(I610565
I612250
tp4431
a(I714134
I715281
tp4432
a(I768002
I768322
tp4433
a(I810829
I811327
tp4434
a(I842955
I843272
tp4435
a(I937418
I939079
tp4436
a(I1025924
I1026812
tp4437
a(I1083308
I1083824
tp4438
a(I1142806
I1143405
tp4439
a(I1214751
I1215548
tp4440
a(I1278372
I1279193
tp4441
a(I1335625
I1336403
tp4442
a(I1375581
I1375828
tp4443
a(I1449939
I1451176
tp4444
a(I1519809
I1520512
tp4445
a(I1589967
I1590810
tp4446
a(I1655773
I1656314
tp4447
a(I1686386
I1686596
tp4448
a(I1750006
I1751053
tp4449
a(I1797517
I1797723
tp4450
a(I1829327
I1829702
tp4451
a(I1853784
I1854015
tp4452
a(I1914077
I1915204
tp4453
a(I1968252
I1968700
tp4454
a(I1989037
I1989458
tp4455
a(I2110292
I2112611
tp4456
a(I2234303
I2235627
tp4457
a(I2310110
I2310724
tp4458
a(I2356932
I2357575
tp4459
a(I2449047
I2450371
tp4460
a(I2495927
I2496153
tp4461
a(I2544540
I2545154
tp4462
a(I2578896
I2579103
tp4463
a(I2634252
I2635105
tp4464
a(I2774702
I2777225
tp4465
a(I2869691
I2870299
tp4466
a(I2935874
I2936820
tp4467
a(I2972278
I2972424
tp4468
a(I3017162
I3018095
tp4469
a(I3082198
I3082956
tp4470
a(I3133105
I3133422
tp4471
a(I3151484
I3151609
tp4472
aa(lp4473
(I9750
I9938
tp4474
a(I66166
I66904
tp4475
a(I122565
I123041
tp4476
a(I170710
I171701
tp4477
a(I328944
I332498
tp4478
a(I440455
I441238
tp4479
a(I491338
I491877
tp4480
a(I525324
I525585
tp4481
a(I542738
I542938
tp4482
a(I612250
I613987
tp4483
a(I715281
I716496
tp4484
a(I768322
I768626
tp4485
a(I811327
I811842
tp4486
a(I843272
I843601
tp4487
a(I939079
I940761
tp4488
a(I1026812
I1027737
tp4489
a(I1083824
I1084321
tp4490
a(I1143405
I1144013
tp4491
a(I1215548
I1216338
tp4492
a(I1279193
I1280007
tp4493
a(I1336403
I1337199
tp4494
a(I1375828
I1376074
tp4495
a(I1451176
I1452453
tp4496
a(I1520512
I1521234
tp4497
a(I1590810
I1591668
tp4498
a(I1656314
I1656844
tp4499
a(I1686596
I1686799
tp4500
a(I1751053
I1752123
tp4501
a(I1797723
I1797918
tp4502
a(I1829702
I1830079
tp4503
a(I1854015
I1854261
tp4504
a(I1915204
I1916322
tp4505
a(I1968700
I1969153
tp4506
a(I1989458
I1989905
tp4507
a(I2112611
I2114888
tp4508
a(I2235627
I2236979
tp4509
a(I2310724
I2311368
tp4510
a(I2357575
I2358243
tp4511
a(I2450371
I2451684
tp4512
a(I2496153
I2496373
tp4513
a(I2545154
I2545768
tp4514
a(I2579103
I2579303
tp4515
a(I2635105
I2635967
tp4516
a(I2777225
I2779841
tp4517
a(I2870299
I2870927
tp4518
a(I2936820
I2937795
tp4519
a(I2972424
I2972565
tp4520
a(I3018095
I3019055
tp4521
a(I3082956
I3083689
tp4522
a(I3133422
I3133736
tp4523
a(I3151609
I3151727
tp4524
aa(lp4525
(I9938
I10137
tp4526
a(I66904
I67621
tp4527
a(I123041
I123535
tp4528
a(I171701
I172714
tp4529
a(I332498
I336008
tp4530
a(I441238
I442044
tp4531
a(I491877
I492414
tp4532
a(I525585
I525849
tp4533
a(I542938
I543113
tp4534
a(I613987
I615772
tp4535
a(I716496
I717753
tp4536
a(I768626
I768916
tp4537
a(I811842
I812362
tp4538
a(I843601
I843928
tp4539
a(I940761
I942469
tp4540
a(I1027737
I1028686
tp4541
a(I1084321
I1084855
tp4542
a(I1144013
I1144624
tp4543
a(I1216338
I1217128
tp4544
a(I1280007
I1280829
tp4545
a(I1337199
I1338003
tp4546
a(I1376074
I1376316
tp4547
a(I1452453
I1453766
tp4548
a(I1521234
I1521978
tp4549
a(I1591668
I1592559
tp4550
a(I1656844
I1657377
tp4551
a(I1686799
I1687013
tp4552
a(I1752123
I1753258
tp4553
a(I1797918
I1798100
tp4554
a(I1830079
I1830466
tp4555
a(I1854261
I1854499
tp4556
a(I1916322
I1917477
tp4557
a(I1969153
I1969601
tp4558
a(I1989905
I1990379
tp4559
a(I2114888
I2117165
tp4560
a(I2236979
I2238359
tp4561
a(I2311368
I2312074
tp4562
a(I2358243
I2358905
tp4563
a(I2451684
I2453014
tp4564
a(I2496373
I2496599
tp4565
a(I2545768
I2546386
tp4566
a(I2579303
I2579500
tp4567
a(I2635967
I2636842
tp4568
a(I2779841
I2782495
tp4569
a(I2870927
I2871575
tp4570
a(I2937795
I2938761
tp4571
a(I2972565
I2972704
tp4572
a(I3019055
I3020019
tp4573
a(I3083689
I3084435
tp4574
a(I3133736
I3134056
tp4575
a(I3151727
I3151848
tp4576
aa(lp4577
(I10137
I10347
tp4578
a(I67621
I68369
tp4579
a(I123535
I124076
tp4580
a(I172714
I173752
tp4581
a(I336008
I339552
tp4582
a(I442044
I442898
tp4583
a(I492414
I492941
tp4584
a(I525849
I526115
tp4585
a(I543113
I543313
tp4586
a(I615772
I617594
tp4587
a(I717753
I719108
tp4588
a(I768916
I769209
tp4589
a(I812362
I812885
tp4590
a(I843928
I844270
tp4591
a(I942469
I944209
tp4592
a(I1028686
I1029648
tp4593
a(I1084855
I1085410
tp4594
a(I1144624
I1145276
tp4595
a(I1217128
I1217963
tp4596
a(I1280829
I1281691
tp4597
a(I1338003
I1338838
tp4598
a(I1376316
I1376562
tp4599
a(I1453766
I1455126
tp4600
a(I1521978
I1522742
tp4601
a(I1592559
I1593471
tp4602
a(I1657377
I1657962
tp4603
a(I1687013
I1687217
tp4604
a(I1753258
I1754473
tp4605
a(I1798100
I1798277
tp4606
a(I1830466
I1830854
tp4607
a(I1854499
I1854747
tp4608
a(I1917477
I1918648
tp4609
a(I1969601
I1970063
tp4610
a(I1990379
I1990863
tp4611
a(I2117165
I2119493
tp4612
a(I2238359
I2239767
tp4613
a(I2312074
I2312770
tp4614
a(I2358905
I2359577
tp4615
a(I2453014
I2454366
tp4616
a(I2496599
I2496834
tp4617
a(I2546386
I2547039
tp4618
a(I2579500
I2579708
tp4619
a(I2636842
I2637789
tp4620
a(I2782495
I2785289
tp4621
a(I2871575
I2872273
tp4622
a(I2938761
I2939769
tp4623
a(I2972704
I2972851
tp4624
a(I3020019
I3021034
tp4625
a(I3084435
I3085199
tp4626
a(I3134056
I3134381
tp4627
a(I3151848
I3151968
tp4628
aa(lp4629
(I10347
I10543
tp4630
a(I68369
I69158
tp4631
a(I124076
I124611
tp4632
a(I173752
I174845
tp4633
a(I339552
I343140
tp4634
a(I442898
I443797
tp4635
a(I492941
I493498
tp4636
a(I526115
I526379
tp4637
a(I543313
I543513
tp4638
a(I617594
I619472
tp4639
a(I719108
I720521
tp4640
a(I769209
I769499
tp4641
a(I812885
I813414
tp4642
a(I844270
I844621
tp4643
a(I944209
I945949
tp4644
a(I1029648
I1030626
tp4645
a(I1085410
I1085999
tp4646
a(I1145276
I1145944
tp4647
a(I1217963
I1218825
tp4648
a(I1281691
I1282566
tp4649
a(I1338838
I1339683
tp4650
a(I1376562
I1376804
tp4651
a(I1455126
I1456511
tp4652
a(I1522742
I1523510
tp4653
a(I1593471
I1594360
tp4654
a(I1657962
I1658524
tp4655
a(I1687217
I1687420
tp4656
a(I1754473
I1755734
tp4657
a(I1798277
I1798454
tp4658
a(I1830854
I1831247
tp4659
a(I1854747
I1855000
tp4660
a(I1918648
I1919821
tp4661
a(I1970063
I1970495
tp4662
a(I1990863
I1991376
tp4663
a(I2119493
I2121857
tp4664
a(I2239767
I2241205
tp4665
a(I2312770
I2313478
tp4666
a(I2359577
I2360280
tp4667
a(I2454366
I2455748
tp4668
a(I2496834
I2497072
tp4669
a(I2547039
I2547712
tp4670
a(I2579708
I2579916
tp4671
a(I2637789
I2638739
tp4672
a(I2785289
I2788171
tp4673
a(I2872273
I2872968
tp4674
a(I2939769
I2940817
tp4675
a(I2972851
I2972987
tp4676
a(I3021034
I3022039
tp4677
a(I3085199
I3085989
tp4678
a(I3134381
I3134700
tp4679
a(I3151968
I3152080
tp4680
aa(lp4681
(I10543
I10736
tp4682
a(I69158
I69957
tp4683
a(I124611
I125176
tp4684
a(I174845
I175994
tp4685
a(I343140
I346904
tp4686
a(I443797
I444728
tp4687
a(I493498
I494058
tp4688
a(I526379
I526669
tp4689
a(I543513
I543717
tp4690
a(I619472
I621458
tp4691
a(I720521
I722021
tp4692
a(I769499
I769797
tp4693
a(I813414
I813945
tp4694
a(I844621
I845003
tp4695
a(I945949
I947767
tp4696
a(I1030626
I1031649
tp4697
a(I1085999
I1086601
tp4698
a(I1145944
I1146617
tp4699
a(I1218825
I1219686
tp4700
a(I1282566
I1283432
tp4701
a(I1339683
I1340558
tp4702
a(I1376804
I1377056
tp4703
a(I1456511
I1457921
tp4704
a(I1523510
I1524305
tp4705
a(I1594360
I1595273
tp4706
a(I1658524
I1659113
tp4707
a(I1687420
I1687638
tp4708
a(I1755734
I1757051
tp4709
a(I1798454
I1798627
tp4710
a(I1831247
I1831670
tp4711
a(I1855000
I1855246
tp4712
a(I1919821
I1921039
tp4713
a(I1970495
I1970961
tp4714
a(I1991376
I1991893
tp4715
a(I2121857
I2124284
tp4716
a(I2241205
I2242707
tp4717
a(I2313478
I2314206
tp4718
a(I2360280
I2360993
tp4719
a(I2455748
I2457157
tp4720
a(I2497072
I2497300
tp4721
a(I2547712
I2548385
tp4722
a(I2579916
I2580116
tp4723
a(I2638739
I2639717
tp4724
a(I2788171
I2791178
tp4725
a(I2872968
I2873684
tp4726
a(I2940817
I2941934
tp4727
a(I2972987
I2973127
tp4728
a(I3022039
I3023057
tp4729
a(I3085989
I3086827
tp4730
a(I3134700
I3135039
tp4731
a(I3152080
I3152198
tp4732
aa(lp4733
(I10736
I10944
tp4734
a(I69957
I70731
tp4735
a(I125176
I125725
tp4736
a(I175994
I177171
tp4737
a(I346904
I350694
tp4738
a(I444728
I445692
tp4739
a(I494058
I494626
tp4740
a(I526669
I526962
tp4741
a(I543717
I543935
tp4742
a(I621458
I623485
tp4743
a(I722021
I723573
tp4744
a(I769797
I770079
tp4745
a(I813945
I814508
tp4746
a(I845003
I845374
tp4747
a(I947767
I949596
tp4748
a(I1031649
I1032697
tp4749
a(I1086601
I1087210
tp4750
a(I1146617
I1147308
tp4751
a(I1219686
I1220523
tp4752
a(I1283432
I1284351
tp4753
a(I1340558
I1341448
tp4754
a(I1377056
I1377306
tp4755
a(I1457921
I1459316
tp4756
a(I1524305
I1525135
tp4757
a(I1595273
I1596190
tp4758
a(I1659113
I1659711
tp4759
a(I1687638
I1687849
tp4760
a(I1757051
I1758417
tp4761
a(I1798627
I1798820
tp4762
a(I1831670
I1832081
tp4763
a(I1855246
I1855511
tp4764
a(I1921039
I1922313
tp4765
a(I1970961
I1971425
tp4766
a(I1991893
I1992440
tp4767
a(I2124284
I2126723
tp4768
a(I2242707
I2244163
tp4769
a(I2314206
I2314952
tp4770
a(I2360993
I2361689
tp4771
a(I2457157
I2458559
tp4772
a(I2497300
I2497534
tp4773
a(I2548385
I2549096
tp4774
a(I2580116
I2580343
tp4775
a(I2639717
I2640708
tp4776
a(I2791178
I2794299
tp4777
a(I2873684
I2874439
tp4778
a(I2941934
I2943077
tp4779
a(I2973127
I2973266
tp4780
a(I3023057
I3024090
tp4781
a(I3086827
I3087661
tp4782
a(I3135039
I3135384
tp4783
a(I3152198
I3152303
tp4784
aa(lp4785
(I10944
I11149
tp4786
a(I70731
I71514
tp4787
a(I125725
I126298
tp4788
a(I177171
I178384
tp4789
a(I350694
I354552
tp4790
a(I445692
I446657
tp4791
a(I494626
I495200
tp4792
a(I526962
I527225
tp4793
a(I543935
I544160
tp4794
a(I623485
I625517
tp4795
a(I723573
I725152
tp4796
a(I770079
I770345
tp4797
a(I814508
I815068
tp4798
a(I845374
I845766
tp4799
a(I949596
I951425
tp4800
a(I1032697
I1033744
tp4801
a(I1087210
I1087840
tp4802
a(I1147308
I1147976
tp4803
a(I1220523
I1221365
tp4804
a(I1284351
I1285257
tp4805
a(I1341448
I1342348
tp4806
a(I1377306
I1377560
tp4807
a(I1459316
I1460711
tp4808
a(I1525135
I1525955
tp4809
a(I1596190
I1597111
tp4810
a(I1659711
I1660299
tp4811
a(I1687849
I1688064
tp4812
a(I1758417
I1759789
tp4813
a(I1798820
I1798986
tp4814
a(I1832081
I1832515
tp4815
a(I1855511
I1855759
tp4816
a(I1922313
I1923559
tp4817
a(I1971425
I1971916
tp4818
a(I1992440
I1993002
tp4819
a(I2126723
I2129108
tp4820
a(I2244163
I2245640
tp4821
a(I2314952
I2315726
tp4822
a(I2361689
I2362427
tp4823
a(I2458559
I2459972
tp4824
a(I2497534
I2497773
tp4825
a(I2549096
I2549804
tp4826
a(I2580343
I2580559
tp4827
a(I2640708
I2641720
tp4828
a(I2794299
I2797519
tp4829
a(I2874439
I2875190
tp4830
a(I2943077
I2944227
tp4831
a(I2973266
I2973390
tp4832
a(I3024090
I3025159
tp4833
a(I3087661
I3088475
tp4834
a(I3135384
I3135734
tp4835
a(I3152303
I3152437
tp4836
aa(lp4837
(I11149
I11349
tp4838
a(I71514
I72333
tp4839
a(I126298
I126892
tp4840
a(I178384
I179620
tp4841
a(I354552
I358456
tp4842
a(I446657
I447660
tp4843
a(I495200
I495797
tp4844
a(I527225
I527496
tp4845
a(I544160
I544381
tp4846
a(I625517
I627647
tp4847
a(I725152
I726808
tp4848
a(I770345
I770632
tp4849
a(I815068
I815648
tp4850
a(I845766
I846159
tp4851
a(I951425
I953297
tp4852
a(I1033744
I1034810
tp4853
a(I1087840
I1088478
tp4854
a(I1147976
I1148671
tp4855
a(I1221365
I1222270
tp4856
a(I1285257
I1286170
tp4857
a(I1342348
I1343267
tp4858
a(I1377560
I1377821
tp4859
a(I1460711
I1462168
tp4860
a(I1525955
I1526813
tp4861
a(I1597111
I1598072
tp4862
a(I1660299
I1660906
tp4863
a(I1688064
I1688293
tp4864
a(I1759789
I1761186
tp4865
a(I1798986
I1799173
tp4866
a(I1832515
I1832951
tp4867
a(I1855759
I1856014
tp4868
a(I1923559
I1924893
tp4869
a(I1971916
I1972417
tp4870
a(I1993002
I1993582
tp4871
a(I2129108
I2131554
tp4872
a(I2245640
I2247181
tp4873
a(I2315726
I2316497
tp4874
a(I2362427
I2363151
tp4875
a(I2459972
I2461459
tp4876
a(I2497773
I2498011
tp4877
a(I2549804
I2550553
tp4878
a(I2580559
I2580799
tp4879
a(I2641720
I2642758
tp4880
a(I2797519
I2800834
tp4881
a(I2875190
I2875970
tp4882
a(I2944227
I2945434
tp4883
a(I2973390
I2973525
tp4884
a(I3025159
I3026212
tp4885
a(I3088475
I3089322
tp4886
a(I3135734
I3136092
tp4887
a(I3152437
I3152553
tp4888
aa(lp4889
(I11349
I11553
tp4890
a(I72333
I73167
tp4891
a(I126892
I127499
tp4892
a(I179620
I180885
tp4893
a(I358456
I362479
tp4894
a(I447660
I448642
tp4895
a(I495797
I496384
tp4896
a(I527496
I527780
tp4897
a(I544381
I544606
tp4898
a(I627647
I629871
tp4899
a(I726808
I728494
tp4900
a(I770632
I770945
tp4901
a(I815648
I816239
tp4902
a(I846159
I846565
tp4903
a(I953297
I955189
tp4904
a(I1034810
I1035923
tp4905
a(I1088478
I1089142
tp4906
a(I1148671
I1149470
tp4907
a(I1222270
I1223180
tp4908
a(I1286170
I1287100
tp4909
a(I1343267
I1344218
tp4910
a(I1377821
I1378095
tp4911
a(I1462168
I1463591
tp4912
a(I1526813
I1527722
tp4913
a(I1598072
I1599049
tp4914
a(I1660906
I1661520
tp4915
a(I1688293
I1688510
tp4916
a(I1761186
I1762628
tp4917
a(I1799173
I1799358
tp4918
a(I1832951
I1833415
tp4919
a(I1856014
I1856285
tp4920
a(I1924893
I1926210
tp4921
a(I1972417
I1972935
tp4922
a(I1993582
I1994174
tp4923
a(I2131554
I2134035
tp4924
a(I2247181
I2248746
tp4925
a(I2316497
I2317295
tp4926
a(I2363151
I2363883
tp4927
a(I2461459
I2462958
tp4928
a(I2498011
I2498264
tp4929
a(I2550553
I2551332
tp4930
a(I2580799
I2581036
tp4931
a(I2642758
I2643816
tp4932
a(I2800834
I2804181
tp4933
a(I2875970
I2876792
tp4934
a(I2945434
I2946678
tp4935
a(I2973525
I2973663
tp4936
a(I3026212
I3027291
tp4937
a(I3089322
I3090183
tp4938
a(I3136092
I3136465
tp4939
a(I3152553
I3152677
tp4940
aa(lp4941
(I11553
I11767
tp4942
a(I73167
I74014
tp4943
a(I127499
I128133
tp4944
a(I180885
I182217
tp4945
a(I362479
I366576
tp4946
a(I448642
I449665
tp4947
a(I496384
I496988
tp4948
a(I527780
I528038
tp4949
a(I544606
I544839
tp4950
a(I629871
I632149
tp4951
a(I728494
I730245
tp4952
a(I770945
I771235
tp4953
a(I816239
I816869
tp4954
a(I846565
I847016
tp4955
a(I955189
I957106
tp4956
a(I1035923
I1037066
tp4957
a(I1089142
I1089821
tp4958
a(I1149470
I1150225
tp4959
a(I1223180
I1224075
tp4960
a(I1287100
I1288041
tp4961
a(I1344218
I1345189
tp4962
a(I1378095
I1378369
tp4963
a(I1463591
I1465062
tp4964
a(I1527722
I1528644
tp4965
a(I1599049
I1600110
tp4966
a(I1661520
I1662151
tp4967
a(I1688510
I1688738
tp4968
a(I1762628
I1764098
tp4969
a(I1799358
I1799543
tp4970
a(I1833415
I1833869
tp4971
a(I1856285
I1856548
tp4972
a(I1926210
I1927546
tp4973
a(I1972935
I1973458
tp4974
a(I1994174
I1994806
tp4975
a(I2134035
I2136515
tp4976
a(I2248746
I2250368
tp4977
a(I2317295
I2318090
tp4978
a(I2363883
I2364628
tp4979
a(I2462958
I2464500
tp4980
a(I2498264
I2498508
tp4981
a(I2551332
I2552126
tp4982
a(I2581036
I2581289
tp4983
a(I2643816
I2644945
tp4984
a(I2804181
I2807589
tp4985
a(I2876792
I2877600
tp4986
a(I2946678
I2947986
tp4987
a(I2973663
I2973801
tp4988
a(I3027291
I3028418
tp4989
a(I3090183
I3091089
tp4990
a(I3136465
I3136838
tp4991
a(I3152677
I3152808
tp4992
aa(lp4993
(I11767
I11988
tp4994
a(I74014
I74913
tp4995
a(I128133
I128786
tp4996
a(I182217
I183610
tp4997
a(I366576
I370780
tp4998
a(I449665
I450719
tp4999
a(I496988
I497580
tp5000
a(I528038
I528321
tp5001
a(I544839
I545082
tp5002
a(I632149
I634546
tp5003
a(I730245
I732071
tp5004
a(I771235
I771547
tp5005
a(I816869
I817504
tp5006
a(I847016
I847483
tp5007
a(I957106
I959085
tp5008
a(I1037066
I1038235
tp5009
a(I1089821
I1090507
tp5010
a(I1150225
I1151007
tp5011
a(I1224075
I1224961
tp5012
a(I1288041
I1289026
tp5013
a(I1345189
I1346187
tp5014
a(I1378369
I1378644
tp5015
a(I1465062
I1466545
tp5016
a(I1528644
I1529623
tp5017
a(I1600110
I1601194
tp5018
a(I1662151
I1662834
tp5019
a(I1688738
I1688980
tp5020
a(I1764098
I1765656
tp5021
a(I1799543
I1799740
tp5022
a(I1833869
I1834348
tp5023
a(I1856548
I1856831
tp5024
a(I1927546
I1928894
tp5025
a(I1973458
I1973986
tp5026
a(I1994806
I1995483
tp5027
a(I2136515
I2139079
tp5028
a(I2250368
I2251996
tp5029
a(I2318090
I2318953
tp5030
a(I2364628
I2365415
tp5031
a(I2464500
I2466024
tp5032
a(I2498508
I2498744
tp5033
a(I2552126
I2553002
tp5034
a(I2581289
I2581542
tp5035
a(I2644945
I2646118
tp5036
a(I2807589
I2811122
tp5037
a(I2877600
I2878463
tp5038
a(I2947986
I2949326
tp5039
a(I2973801
I2973929
tp5040
a(I3028418
I3029561
tp5041
a(I3091089
I3092032
tp5042
a(I3136838
I3137229
tp5043
a(I3152808
I3152934
tp5044
aa(lp5045
(I11988
I12187
tp5046
a(I74913
I75855
tp5047
a(I128786
I129443
tp5048
a(I183610
I185026
tp5049
a(I370780
I375057
tp5050
a(I450719
I451768
tp5051
a(I497580
I498202
tp5052
a(I528321
I528598
tp5053
a(I545082
I545316
tp5054
a(I634546
I636974
tp5055
a(I732071
I733934
tp5056
a(I771547
I771841
tp5057
a(I817504
I818158
tp5058
a(I847483
I847935
tp5059
a(I959085
I961083
tp5060
a(I1038235
I1039451
tp5061
a(I1090507
I1091217
tp5062
a(I1151007
I1151810
tp5063
a(I1224961
I1225953
tp5064
a(I1289026
I1290002
tp5065
a(I1346187
I1347238
tp5066
a(I1378644
I1378935
tp5067
a(I1466545
I1468010
tp5068
a(I1529623
I1530636
tp5069
a(I1601194
I1602297
tp5070
a(I1662834
I1663543
tp5071
a(I1688980
I1689220
tp5072
a(I1765656
I1767274
tp5073
a(I1799740
I1799940
tp5074
a(I1834348
I1834837
tp5075
a(I1856831
I1857101
tp5076
a(I1928894
I1930328
tp5077
a(I1973986
I1974543
tp5078
a(I1995483
I1996179
tp5079
a(I2139079
I2141673
tp5080
a(I2251996
I2253678
tp5081
a(I2318953
I2319844
tp5082
a(I2365415
I2366225
tp5083
a(I2466024
I2467633
tp5084
a(I2498744
I2498983
tp5085
a(I2553002
I2553891
tp5086
a(I2581542
I2581808
tp5087
a(I2646118
I2647332
tp5088
a(I2811122
I2814817
tp5089
a(I2878463
I2879361
tp5090
a(I2949326
I2950706
tp5091
a(I2973929
I2974062
tp5092
a(I3029561
I3030788
tp5093
a(I3092032
I3092998
tp5094
a(I3137229
I3137622
tp5095
a(I3152934
I3153087
tp5096
aa(lp5097
(I12187
I12412
tp5098
a(I75855
I76792
tp5099
a(I129443
I130126
tp5100
a(I185026
I186416
tp5101
a(I375057
I379301
tp5102
a(I451768
I452820
tp5103
a(I498202
I498814
tp5104
a(I528598
I528882
tp5105
a(I545316
I545547
tp5106
a(I636974
I639393
tp5107
a(I733934
I735781
tp5108
a(I771841
I772154
tp5109
a(I818158
I818817
tp5110
a(I847935
I848409
tp5111
a(I961083
I963108
tp5112
a(I1039451
I1040665
tp5113
a(I1091217
I1091933
tp5114
a(I1151810
I1152648
tp5115
a(I1225953
I1226907
tp5116
a(I1290002
I1290978
tp5117
a(I1347238
I1348314
tp5118
a(I1378935
I1379217
tp5119
a(I1468010
I1469506
tp5120
a(I1530636
I1531628
tp5121
a(I1602297
I1603415
tp5122
a(I1663543
I1664232
tp5123
a(I1689220
I1689483
tp5124
a(I1767274
I1768920
tp5125
a(I1799940
I1800159
tp5126
a(I1834837
I1835337
tp5127
a(I1857101
I1857381
tp5128
a(I1930328
I1931707
tp5129
a(I1974543
I1975100
tp5130
a(I1996179
I1996859
tp5131
a(I2141673
I2144306
tp5132
a(I2253678
I2255360
tp5133
a(I2319844
I2320755
tp5134
a(I2366225
I2367036
tp5135
a(I2467633
I2469267
tp5136
a(I2498983
I2499219
tp5137
a(I2553891
I2554816
tp5138
a(I2581808
I2582073
tp5139
a(I2647332
I2648575
tp5140
a(I2814817
I2818509
tp5141
a(I2879361
I2880275
tp5142
a(I2950706
I2952093
tp5143
a(I2974062
I2974189
tp5144
a(I3030788
I3032070
tp5145
a(I3092998
I3094006
tp5146
a(I3137622
I3138023
tp5147
a(I3153087
I3153234
tp5148
aa(lp5149
(I12412
I12624
tp5150
a(I76792
I77711
tp5151
a(I130126
I130785
tp5152
a(I186416
I187739
tp5153
a(I379301
I383491
tp5154
a(I452820
I453892
tp5155
a(I498814
I499426
tp5156
a(I528882
I529146
tp5157
a(I545547
I545778
tp5158
a(I639393
I641754
tp5159
a(I735781
I737577
tp5160
a(I772154
I772443
tp5161
a(I818817
I819486
tp5162
a(I848409
I848875
tp5163
a(I963108
I965064
tp5164
a(I1040665
I1041890
tp5165
a(I1091933
I1092680
tp5166
a(I1152648
I1153440
tp5167
a(I1226907
I1227911
tp5168
a(I1290978
I1291939
tp5169
a(I1348314
I1349366
tp5170
a(I1379217
I1379482
tp5171
a(I1469506
I1471021
tp5172
a(I1531628
I1532605
tp5173
a(I1603415
I1604510
tp5174
a(I1664232
I1664907
tp5175
a(I1689483
I1689735
tp5176
a(I1768920
I1770560
tp5177
a(I1800159
I1800374
tp5178
a(I1835337
I1835845
tp5179
a(I1857381
I1857635
tp5180
a(I1931707
I1933099
tp5181
a(I1975100
I1975653
tp5182
a(I1996859
I1997539
tp5183
a(I2144306
I2146926
tp5184
a(I2255360
I2257050
tp5185
a(I2320755
I2321644
tp5186
a(I2367036
I2367824
tp5187
a(I2469267
I2470917
tp5188
a(I2499219
I2499455
tp5189
a(I2554816
I2555702
tp5190
a(I2582073
I2582325
tp5191
a(I2648575
I2649781
tp5192
a(I2818509
I2822288
tp5193
a(I2880275
I2881168
tp5194
a(I2952093
I2953453
tp5195
a(I2974189
I2974310
tp5196
a(I3032070
I3033331
tp5197
a(I3094006
I3095021
tp5198
a(I3138023
I3138410
tp5199
a(I3153234
I3153367
tp5200
aa(lp5201
(I12624
I12846
tp5202
a(I77711
I78629
tp5203
a(I130785
I131444
tp5204
a(I187739
I189058
tp5205
a(I383491
I387585
tp5206
a(I453892
I454929
tp5207
a(I499426
I500027
tp5208
a(I529146
I529410
tp5209
a(I545778
I546003
tp5210
a(I641754
I644082
tp5211
a(I737577
I739310
tp5212
a(I772443
I772730
tp5213
a(I819486
I820134
tp5214
a(I848875
I849310
tp5215
a(I965064
I967019
tp5216
a(I1041890
I1043091
tp5217
a(I1092680
I1093407
tp5218
a(I1153440
I1154244
tp5219
a(I1227911
I1228889
tp5220
a(I1291939
I1292893
tp5221
a(I1349366
I1350413
tp5222
a(I1379482
I1379760
tp5223
a(I1471021
I1472482
tp5224
a(I1532605
I1533564
tp5225
a(I1604510
I1605616
tp5226
a(I1664907
I1665564
tp5227
a(I1689735
I1689979
tp5228
a(I1770560
I1772186
tp5229
a(I1800374
I1800603
tp5230
a(I1835845
I1836340
tp5231
a(I1857635
I1857901
tp5232
a(I1933099
I1934463
tp5233
a(I1975653
I1976166
tp5234
a(I1997539
I1998188
tp5235
a(I2146926
I2149502
tp5236
a(I2257050
I2258679
tp5237
a(I2321644
I2322538
tp5238
a(I2367824
I2368608
tp5239
a(I2470917
I2472530
tp5240
a(I2499455
I2499685
tp5241
a(I2555702
I2556571
tp5242
a(I2582325
I2582591
tp5243
a(I2649781
I2650958
tp5244
a(I2822288
I2825936
tp5245
a(I2881168
I2882042
tp5246
a(I2953453
I2954792
tp5247
a(I2974310
I2974434
tp5248
a(I3033331
I3034603
tp5249
a(I3095021
I3096000
tp5250
a(I3138410
I3138803
tp5251
a(I3153367
I3153501
tp5252
aa(lp5253
(I12846
I13081
tp5254
a(I78629
I79537
tp5255
a(I131444
I132089
tp5256
a(I189058
I190317
tp5257
a(I387585
I391577
tp5258
a(I454929
I455952
tp5259
a(I500027
I500640
tp5260
a(I529410
I529672
tp5261
a(I546003
I546237
tp5262
a(I644082
I646416
tp5263
a(I739310
I741054
tp5264
a(I772730
I773027
tp5265
a(I820134
I820770
tp5266
a(I849310
I849765
tp5267
a(I967019
I968950
tp5268
a(I1043091
I1044294
tp5269
a(I1093407
I1094103
tp5270
a(I1154244
I1155054
tp5271
a(I1228889
I1229837
tp5272
a(I1292893
I1293838
tp5273
a(I1350413
I1351468
tp5274
a(I1379760
I1380020
tp5275
a(I1472482
I1473918
tp5276
a(I1533564
I1534512
tp5277
a(I1605616
I1606713
tp5278
a(I1665564
I1666227
tp5279
a(I1689979
I1690229
tp5280
a(I1772186
I1773778
tp5281
a(I1800603
I1800820
tp5282
a(I1836340
I1836828
tp5283
a(I1857901
I1858172
tp5284
a(I1934463
I1935834
tp5285
a(I1976166
I1976673
tp5286
a(I1998188
I1998830
tp5287
a(I2149502
I2152073
tp5288
a(I2258679
I2260320
tp5289
a(I2322538
I2323412
tp5290
a(I2368608
I2369389
tp5291
a(I2472530
I2474128
tp5292
a(I2499685
I2499908
tp5293
a(I2556571
I2557440
tp5294
a(I2582591
I2582850
tp5295
a(I2650958
I2652145
tp5296
a(I2825936
I2829539
tp5297
a(I2882042
I2882900
tp5298
a(I2954792
I2956137
tp5299
a(I2974434
I2974559
tp5300
a(I3034603
I3035843
tp5301
a(I3096000
I3096986
tp5302
a(I3138803
I3139206
tp5303
a(I3153501
I3153622
tp5304
aa(lp5305
(I13081
I13297
tp5306
a(I79537
I80406
tp5307
a(I132089
I132746
tp5308
a(I190317
I191596
tp5309
a(I391577
I395665
tp5310
a(I455952
I456974
tp5311
a(I500640
I501205
tp5312
a(I529672
I529954
tp5313
a(I546237
I546458
tp5314
a(I646416
I648749
tp5315
a(I741054
I742764
tp5316
a(I773027
I773323
tp5317
a(I820770
I821434
tp5318
a(I849765
I850217
tp5319
a(I968950
I970835
tp5320
a(I1044294
I1045492
tp5321
a(I1094103
I1094820
tp5322
a(I1155054
I1155843
tp5323
a(I1229837
I1230814
tp5324
a(I1293838
I1294827
tp5325
a(I1351468
I1352506
tp5326
a(I1380020
I1380279
tp5327
a(I1473918
I1475327
tp5328
a(I1534512
I1535502
tp5329
a(I1606713
I1607815
tp5330
a(I1666227
I1666857
tp5331
a(I1690229
I1690464
tp5332
a(I1773778
I1775349
tp5333
a(I1800820
I1801049
tp5334
a(I1836828
I1837313
tp5335
a(I1858172
I1858429
tp5336
a(I1935834
I1937208
tp5337
a(I1976673
I1977169
tp5338
a(I1998830
I1999449
tp5339
a(I2152073
I2154675
tp5340
a(I2260320
I2261974
tp5341
a(I2323412
I2324293
tp5342
a(I2369389
I2370169
tp5343
a(I2474128
I2475729
tp5344
a(I2499908
I2500126
tp5345
a(I2557440
I2558291
tp5346
a(I2582850
I2583104
tp5347
a(I2652145
I2653382
tp5348
a(I2829539
I2833203
tp5349
a(I2882900
I2883774
tp5350
a(I2956137
I2957486
tp5351
a(I2974559
I2974674
tp5352
a(I3035843
I3037083
tp5353
a(I3096986
I3097969
tp5354
a(I3139206
I3139605
tp5355
a(I3153622
I3153739
tp5356
aa(lp5357
(I13297
I13522
tp5358
a(I80406
I81287
tp5359
a(I132746
I133408
tp5360
a(I191596
I192870
tp5361
a(I395665
I399616
tp5362
a(I456974
I458009
tp5363
a(I501205
I501788
tp5364
a(I529954
I530244
tp5365
a(I546458
I546683
tp5366
a(I648749
I651099
tp5367
a(I742764
I744451
tp5368
a(I773323
I773603
tp5369
a(I821434
I822102
tp5370
a(I850217
I850631
tp5371
a(I970835
I972719
tp5372
a(I1045492
I1046667
tp5373
a(I1094820
I1095530
tp5374
a(I1155843
I1156669
tp5375
a(I1230814
I1231786
tp5376
a(I1294827
I1295795
tp5377
a(I1352506
I1353514
tp5378
a(I1380279
I1380530
tp5379
a(I1475327
I1476755
tp5380
a(I1535502
I1536484
tp5381
a(I1607815
I1608894
tp5382
a(I1666857
I1667497
tp5383
a(I1690464
I1690718
tp5384
a(I1775349
I1776938
tp5385
a(I1801049
I1801298
tp5386
a(I1837313
I1837817
tp5387
a(I1858429
I1858692
tp5388
a(I1937208
I1938569
tp5389
a(I1977169
I1977650
tp5390
a(I1999449
I2000059
tp5391
a(I2154675
I2157184
tp5392
a(I2261974
I2263656
tp5393
a(I2324293
I2325164
tp5394
a(I2370169
I2370936
tp5395
a(I2475729
I2477338
tp5396
a(I2500126
I2500352
tp5397
a(I2558291
I2559149
tp5398
a(I2583104
I2583366
tp5399
a(I2653382
I2654581
tp5400
a(I2833203
I2836882
tp5401
a(I2883774
I2884613
tp5402
a(I2957486
I2958836
tp5403
a(I2974674
I2974801
tp5404
a(I3037083
I3038286
tp5405
a(I3097969
I3098924
tp5406
a(I3139605
I3140011
tp5407
a(I3153739
I3153878
tp5408
aa(lp5409
(I13522
I13753
tp5410
a(I81287
I82211
tp5411
a(I133408
I134063
tp5412
a(I192870
I194138
tp5413
a(I399616
I403600
tp5414
a(I458009
I459084
tp5415
a(I501788
I502372
tp5416
a(I530244
I530549
tp5417
a(I546683
I546930
tp5418
a(I651099
I653428
tp5419
a(I744451
I746193
tp5420
a(I773603
I773887
tp5421
a(I822102
I822779
tp5422
a(I850631
I851077
tp5423
a(I972719
I974565
tp5424
a(I1046667
I1047866
tp5425
a(I1095530
I1096231
tp5426
a(I1156669
I1157488
tp5427
a(I1231786
I1232780
tp5428
a(I1295795
I1296750
tp5429
a(I1353514
I1354543
tp5430
a(I1380530
I1380797
tp5431
a(I1476755
I1478206
tp5432
a(I1536484
I1537490
tp5433
a(I1608894
I1610020
tp5434
a(I1667497
I1668141
tp5435
a(I1690718
I1690983
tp5436
a(I1776938
I1778543
tp5437
a(I1801298
I1801572
tp5438
a(I1837817
I1838321
tp5439
a(I1858692
I1858971
tp5440
a(I1938569
I1939934
tp5441
a(I1977650
I1978138
tp5442
a(I2000059
I2000674
tp5443
a(I2157184
I2159712
tp5444
a(I2263656
I2265324
tp5445
a(I2325164
I2326016
tp5446
a(I2370936
I2371755
tp5447
a(I2477338
I2478939
tp5448
a(I2500352
I2500569
tp5449
a(I2559149
I2560018
tp5450
a(I2583366
I2583637
tp5451
a(I2654581
I2655821
tp5452
a(I2836882
I2840594
tp5453
a(I2884613
I2885485
tp5454
a(I2958836
I2960193
tp5455
a(I2974801
I2974923
tp5456
a(I3038286
I3039541
tp5457
a(I3098924
I3099871
tp5458
a(I3140011
I3140397
tp5459
aNaa.