(lp0
(lp1
(I0
I8
tp2
a(I12910
I13150
tp3
a(I71246
I71429
tp4
a(I115631
I115676
tp5
a(I161879
I162009
tp6
a(I306630
I306705
tp7
a(I350621
I350685
tp8
a(I384255
I384295
tp9
a(I409406
I409424
tp10
a(I423448
I423584
tp11
a(I504517
I504789
tp12
a(I580735
I580756
tp13
a(I605110
I605226
tp14
a(I644349
I644382
tp15
a(I670180
I670398
tp16
a(I761301
I761425
tp17
a(I817433
I817552
tp18
a(I857405
I857596
tp19
a(I907667
I907895
tp20
a(I972634
I972770
tp21
a(I1019469
I1019566
tp22
a(I1064576
I1064631
tp23
a(I1086489
I1086639
tp24
a(I1159936
I1160054
tp25
a(I1206540
I1206728
tp26
a(I1263415
I1263656
tp27
a(I1313686
I1313722
tp28
a(I1334345
I1334576
tp29
a(I1407638
I1407707
tp30
a(I1428467
I1428562
tp31
a(I1459329
I1459361
tp32
a(I1475647
I1475760
tp33
a(I1536802
I1536860
tp34
a(I1570246
I1570252
tp35
a(I1589954
I1590234
tp36
a(I1708725
I1708918
tp37
a(I1785316
I1785472
tp38
a(I1834406
I1834450
tp39
a(I1870829
I1871082
tp40
a(I1949360
I1949396
tp41
a(I1966057
I1966256
tp42
a(I2017508
I2017559
tp43
a(I2038898
I2039079
tp44
a(I2097260
I2097603
tp45
a(I2236620
I2236663
tp46
a(I2274299
I2274482
tp47
a(I2336207
I2336236
tp48
a(I2349211
I2349286
tp49
a(I2398833
I2398953
tp50
a(I2446852
I2446959
tp51
a(I2480115
I2480129
tp52
aa(lp53
(I8
I13
tp54
a(I13150
I13380
tp55
a(I71429
I71598
tp56
a(I115676
I115717
tp57
a(I162009
I162151
tp58
a(I306705
I306788
tp59
a(I350685
I350785
tp60
a(I384295
I384335
tp61
a(I409424
I409445
tp62
a(I423584
I423710
tp63
a(I504789
I505060
tp64
a(I580756
I580780
tp65
a(I605226
I605351
tp66
a(I644382
I644422
tp67
a(I670398
I670627
tp68
a(I761425
I761562
tp69
a(I817552
I817677
tp70
a(I857596
I857788
tp71
a(I907895
I908096
tp72
a(I972770
I972964
tp73
a(I1019566
I1019672
tp74
a(I1064631
I1064725
tp75
a(I1086639
I1086795
tp76
a(I1160054
I1160190
tp77
a(I1206728
I1206915
tp78
a(I1263656
I1263865
tp79
a(I1313722
I1313762
tp80
a(I1334576
I1334821
tp81
a(I1407707
I1407776
tp82
a(I1428562
I1428663
tp83
a(I1459361
I1459413
tp84
a(I1475760
I1475914
tp85
a(I1536860
I1536919
tp86
a(I1570252
I1570257
tp87
a(I1590234
I1590595
tp88
a(I1708918
I1709136
tp89
a(I1785472
I1785640
tp90
a(I1834450
I1834509
tp91
a(I1871082
I1871381
tp92
a(I1949396
I1949462
tp93
a(I1966256
I1966459
tp94
a(I2017559
I2017628
tp95
a(I2039079
I2039268
tp96
a(I2097603
I2097971
tp97
a(I2236663
I2236714
tp98
a(I2274482
I2274692
tp99
a(I2336236
I2336285
tp100
a(I2349286
I2349365
tp101
a(I2398953
I2399078
tp102
a(I2446959
I2447075
tp103
a(I2480129
I2480144
tp104
aa(lp105
(I13
I20
tp106
a(I13380
I13714
tp107
a(I71598
I71847
tp108
a(I115717
I115788
tp109
a(I162151
I162406
tp110
a(I306788
I306920
tp111
a(I350785
I350921
tp112
a(I384335
I384393
tp113
a(I409445
I409487
tp114
a(I423710
I423896
tp115
a(I505060
I505441
tp116
a(I580780
I580831
tp117
a(I605351
I605579
tp118
a(I644422
I644513
tp119
a(I670627
I670994
tp120
a(I761562
I761815
tp121
a(I817677
I817889
tp122
a(I857788
I858082
tp123
a(I908096
I908394
tp124
a(I972964
I973227
tp125
a(I1019672
I1019821
tp126
a(I1064725
I1064845
tp127
a(I1086795
I1087044
tp128
a(I1160190
I1160415
tp129
a(I1206915
I1207209
tp130
a(I1263865
I1264156
tp131
a(I1313762
I1313840
tp132
a(I1334821
I1335156
tp133
a(I1407776
I1407904
tp134
a(I1428663
I1428846
tp135
a(I1459413
I1459479
tp136
a(I1475914
I1476125
tp137
a(I1536919
I1537006
tp138
a(I1570257
I1570269
tp139
a(I1590595
I1591057
tp140
a(I1709136
I1709475
tp141
a(I1785640
I1785894
tp142
a(I1834509
I1834609
tp143
a(I1871381
I1871782
tp144
a(I1949462
I1949553
tp145
a(I1966459
I1966729
tp146
a(I2017628
I2017739
tp147
a(I2039268
I2039534
tp148
a(I2097971
I2098517
tp149
a(I2236714
I2236820
tp150
a(I2274692
I2274969
tp151
a(I2336285
I2336349
tp152
a(I2349365
I2349495
tp153
a(I2399078
I2399296
tp154
a(I2447075
I2447268
tp155
a(I2480144
I2480176
tp156
aa(lp157
(I20
I25
tp158
a(I13714
I14080
tp159
a(I71847
I72143
tp160
a(I115788
I115866
tp161
a(I162406
I162686
tp162
a(I306920
I307062
tp163
a(I350921
I351071
tp164
a(I384393
I384447
tp165
a(I409487
I409531
tp166
a(I423896
I424092
tp167
a(I505441
I505844
tp168
a(I580831
I580890
tp169
a(I605579
I605838
tp170
a(I644513
I644616
tp171
a(I670994
I671411
tp172
a(I761815
I762078
tp173
a(I817889
I818124
tp174
a(I858082
I858397
tp175
a(I908394
I908722
tp176
a(I973227
I973521
tp177
a(I1019821
I1019990
tp178
a(I1064845
I1064977
tp179
a(I1087044
I1087336
tp180
a(I1160415
I1160683
tp181
a(I1207209
I1207543
tp182
a(I1264156
I1264493
tp183
a(I1313840
I1313944
tp184
a(I1335156
I1335536
tp185
a(I1407904
I1408044
tp186
a(I1428846
I1429046
tp187
a(I1459479
I1459556
tp188
a(I1476125
I1476346
tp189
a(I1537006
I1537102
tp190
a(I1570269
I1570285
tp191
a(I1591057
I1591554
tp192
a(I1709475
I1709838
tp193
a(I1785894
I1786195
tp194
a(I1834609
I1834735
tp195
a(I1871782
I1872226
tp196
a(I1949553
I1949657
tp197
a(I1966729
I1967013
tp198
a(I2017739
I2017869
tp199
a(I2039534
I2039828
tp200
a(I2098517
I2099157
tp201
a(I2236820
I2236960
tp202
a(I2274969
I2275276
tp203
a(I2336349
I2336422
tp204
a(I2349495
I2349658
tp205
a(I2399296
I2399543
tp206
a(I2447268
I2447496
tp207
a(I2480176
I2480212
tp208
aa(lp209
(I25
I41
tp210
a(I14080
I14503
tp211
a(I72143
I72492
tp212
a(I115866
I115972
tp213
a(I162686
I163028
tp214
a(I307062
I307226
tp215
a(I351071
I351260
tp216
a(I384447
I384525
tp217
a(I409531
I409584
tp218
a(I424092
I424332
tp219
a(I505844
I506310
tp220
a(I580890
I580962
tp221
a(I605838
I606134
tp222
a(I644616
I644741
tp223
a(I671411
I671871
tp224
a(I762078
I762384
tp225
a(I818124
I818369
tp226
a(I858397
I858779
tp227
a(I908722
I909074
tp228
a(I973521
I973866
tp229
a(I1019990
I1020187
tp230
a(I1064977
I1065159
tp231
a(I1087336
I1087675
tp232
a(I1160683
I1160999
tp233
a(I1207543
I1207920
tp234
a(I1264493
I1264865
tp235
a(I1313944
I1314071
tp236
a(I1335536
I1335993
tp237
a(I1408044
I1408214
tp238
a(I1429046
I1429274
tp239
a(I1459556
I1459657
tp240
a(I1476346
I1476618
tp241
a(I1537102
I1537229
tp242
a(I1570285
I1570305
tp243
a(I1591554
I1592125
tp244
a(I1709838
I1710236
tp245
a(I1786195
I1786526
tp246
a(I1834735
I1834884
tp247
a(I1872226
I1872741
tp248
a(I1949657
I1949775
tp249
a(I1967013
I1967370
tp250
a(I2017869
I2018031
tp251
a(I2039828
I2040184
tp252
a(I2099157
I2099877
tp253
a(I2236960
I2237113
tp254
a(I2275276
I2275624
tp255
a(I2336422
I2336502
tp256
a(I2349658
I2349840
tp257
a(I2399543
I2399838
tp258
a(I2447496
I2447759
tp259
a(I2480212
I2480253
tp260
aa(lp261
(I41
I62
tp262
a(I14503
I14988
tp263
a(I72492
I72888
tp264
a(I115972
I116103
tp265
a(I163028
I163403
tp266
a(I307226
I307433
tp267
a(I351260
I351461
tp268
a(I384525
I384603
tp269
a(I409584
I409652
tp270
a(I424332
I424597
tp271
a(I506310
I506841
tp272
a(I580962
I581075
tp273
a(I606134
I606481
tp274
a(I644741
I644904
tp275
a(I671871
I672423
tp276
a(I762384
I762751
tp277
a(I818369
I818688
tp278
a(I858779
I859246
tp279
a(I909074
I909500
tp280
a(I973866
I974250
tp281
a(I1020187
I1020396
tp282
a(I1065159
I1065345
tp283
a(I1087675
I1088086
tp284
a(I1160999
I1161381
tp285
a(I1207920
I1208385
tp286
a(I1264865
I1265287
tp287
a(I1314071
I1314233
tp288
a(I1335993
I1336543
tp289
a(I1408214
I1408436
tp290
a(I1429274
I1429565
tp291
a(I1459657
I1459769
tp292
a(I1476618
I1476922
tp293
a(I1537229
I1537400
tp294
a(I1570305
I1570327
tp295
a(I1592125
I1592759
tp296
a(I1710236
I1710703
tp297
a(I1786526
I1786935
tp298
a(I1834884
I1835054
tp299
a(I1872741
I1873312
tp300
a(I1949775
I1949899
tp301
a(I1967370
I1967760
tp302
a(I2018031
I2018224
tp303
a(I2040184
I2040609
tp304
a(I2099877
I2100690
tp305
a(I2237113
I2237302
tp306
a(I2275624
I2276028
tp307
a(I2336502
I2336606
tp308
a(I2349840
I2350061
tp309
a(I2399838
I2400190
tp310
a(I2447759
I2448087
tp311
a(I2480253
I2480315
tp312
aa(lp313
(I62
I80
tp314
a(I14988
I15497
tp315
a(I72888
I73308
tp316
a(I116103
I116248
tp317
a(I163403
I163806
tp318
a(I307433
I307645
tp319
a(I351461
I351682
tp320
a(I384603
I384688
tp321
a(I409652
I409728
tp322
a(I424597
I424858
tp323
a(I506841
I507362
tp324
a(I581075
I581190
tp325
a(I606481
I606841
tp326
a(I644904
I645065
tp327
a(I672423
I672974
tp328
a(I762751
I763117
tp329
a(I818688
I819008
tp330
a(I859246
I859726
tp331
a(I909500
I909943
tp332
a(I974250
I974636
tp333
a(I1020396
I1020618
tp334
a(I1065345
I1065536
tp335
a(I1088086
I1088534
tp336
a(I1161381
I1161766
tp337
a(I1208385
I1208848
tp338
a(I1265287
I1265723
tp339
a(I1314233
I1314417
tp340
a(I1336543
I1337082
tp341
a(I1408436
I1408665
tp342
a(I1429565
I1429833
tp343
a(I1459769
I1459869
tp344
a(I1476922
I1477231
tp345
a(I1537400
I1537560
tp346
a(I1570327
I1570353
tp347
a(I1592759
I1593398
tp348
a(I1710703
I1711181
tp349
a(I1786935
I1787337
tp350
a(I1835054
I1835223
tp351
a(I1873312
I1873890
tp352
a(I1949899
I1950027
tp353
a(I1967760
I1968155
tp354
a(I2018224
I2018432
tp355
a(I2040609
I2041042
tp356
a(I2100690
I2101538
tp357
a(I2237302
I2237509
tp358
a(I2276028
I2276436
tp359
a(I2336606
I2336713
tp360
a(I2350061
I2350276
tp361
a(I2400190
I2400550
tp362
a(I2448087
I2448412
tp363
a(I2480315
I2480386
tp364
aa(lp365
(I80
I98
tp366
a(I15497
I15995
tp367
a(I73308
I73741
tp368
a(I116248
I116402
tp369
a(I163806
I164225
tp370
a(I307645
I307873
tp371
a(I351682
I351917
tp372
a(I384688
I384774
tp373
a(I409728
I409794
tp374
a(I424858
I425127
tp375
a(I507362
I507890
tp376
a(I581190
I581321
tp377
a(I606841
I607205
tp378
a(I645065
I645235
tp379
a(I672974
I673528
tp380
a(I763117
I763491
tp381
a(I819008
I819336
tp382
a(I859726
I860199
tp383
a(I909943
I910374
tp384
a(I974636
I975021
tp385
a(I1020618
I1020835
tp386
a(I1065536
I1065740
tp387
a(I1088534
I1089002
tp388
a(I1161766
I1162156
tp389
a(I1208848
I1209316
tp390
a(I1265723
I1266164
tp391
a(I1314417
I1314606
tp392
a(I1337082
I1337649
tp393
a(I1408665
I1408889
tp394
a(I1429833
I1430126
tp395
a(I1459869
I1459981
tp396
a(I1477231
I1477550
tp397
a(I1537560
I1537748
tp398
a(I1570353
I1570388
tp399
a(I1593398
I1594064
tp400
a(I1711181
I1711679
tp401
a(I1787337
I1787742
tp402
a(I1835223
I1835390
tp403
a(I1873890
I1874486
tp404
a(I1950027
I1950157
tp405
a(I1968155
I1968557
tp406
a(I2018432
I2018640
tp407
a(I2041042
I2041502
tp408
a(I2101538
I2102380
tp409
a(I2237509
I2237714
tp410
a(I2276436
I2276876
tp411
a(I2336713
I2336822
tp412
a(I2350276
I2350493
tp413
a(I2400550
I2400925
tp414
a(I2448412
I2448730
tp415
a(I2480386
I2480468
tp416
aa(lp417
(I98
I119
tp418
a(I15995
I16512
tp419
a(I73741
I74196
tp420
a(I116402
I116580
tp421
a(I164225
I164674
tp422
a(I307873
I308106
tp423
a(I351917
I352161
tp424
a(I384774
I384874
tp425
a(I409794
I409875
tp426
a(I425127
I425415
tp427
a(I507890
I508463
tp428
a(I581321
I581454
tp429
a(I607205
I607587
tp430
a(I645235
I645416
tp431
a(I673528
I674102
tp432
a(I763491
I763874
tp433
a(I819336
I819682
tp434
a(I860199
I860720
tp435
a(I910374
I910851
tp436
a(I975021
I975420
tp437
a(I1020835
I1021062
tp438
a(I1065740
I1065949
tp439
a(I1089002
I1089481
tp440
a(I1162156
I1162553
tp441
a(I1209316
I1209779
tp442
a(I1266164
I1266617
tp443
a(I1314606
I1314798
tp444
a(I1337649
I1338240
tp445
a(I1408889
I1409139
tp446
a(I1430126
I1430426
tp447
a(I1459981
I1460107
tp448
a(I1477550
I1477877
tp449
a(I1537748
I1537929
tp450
a(I1570388
I1570416
tp451
a(I1594064
I1594716
tp452
a(I1711679
I1712196
tp453
a(I1787742
I1788188
tp454
a(I1835390
I1835576
tp455
a(I1874486
I1875119
tp456
a(I1950157
I1950295
tp457
a(I1968557
I1968993
tp458
a(I2018640
I2018860
tp459
a(I2041502
I2041970
tp460
a(I2102380
I2103230
tp461
a(I2237714
I2237935
tp462
a(I2276876
I2277337
tp463
a(I2336822
I2336935
tp464
a(I2350493
I2350736
tp465
a(I2400925
I2401309
tp466
a(I2448730
I2449094
tp467
a(I2480468
I2480553
tp468
aa(lp469
(I119
I140
tp470
a(I16512
I17073
tp471
a(I74196
I74665
tp472
a(I116580
I116757
tp473
a(I164674
I165134
tp474
a(I308106
I308349
tp475
a(I352161
I352376
tp476
a(I384874
I384969
tp477
a(I409875
I409953
tp478
a(I425415
I425712
tp479
a(I508463
I509067
tp480
a(I581454
I581588
tp481
a(I607587
I607944
tp482
a(I645416
I645586
tp483
a(I674102
I674659
tp484
a(I763874
I764227
tp485
a(I819682
I820024
tp486
a(I860720
I861232
tp487
a(I910851
I911352
tp488
a(I975420
I975791
tp489
a(I1021062
I1021302
tp490
a(I1065949
I1066155
tp491
a(I1089481
I1089912
tp492
a(I1162553
I1162932
tp493
a(I1209779
I1210242
tp494
a(I1266617
I1267092
tp495
a(I1314798
I1314970
tp496
a(I1338240
I1338860
tp497
a(I1409139
I1409374
tp498
a(I1430426
I1430710
tp499
a(I1460107
I1460224
tp500
a(I1477877
I1478204
tp501
a(I1537929
I1538116
tp502
a(I1570416
I1570444
tp503
a(I1594716
I1595362
tp504
a(I1712196
I1712691
tp505
a(I1788188
I1788632
tp506
a(I1835576
I1835764
tp507
a(I1875119
I1875718
tp508
a(I1950295
I1950440
tp509
a(I1968993
I1969446
tp510
a(I2018860
I2019066
tp511
a(I2041970
I2042437
tp512
a(I2103230
I2104166
tp513
a(I2237935
I2238133
tp514
a(I2277337
I2277778
tp515
a(I2336935
I2337048
tp516
a(I2350736
I2350978
tp517
a(I2401309
I2401665
tp518
a(I2449094
I2449439
tp519
a(I2480553
I2480637
tp520
aa(lp521
(I140
I163
tp522
a(I17073
I17624
tp523
a(I74665
I75138
tp524
a(I116757
I116946
tp525
a(I165134
I165652
tp526
a(I308349
I308599
tp527
a(I352376
I352602
tp528
a(I384969
I385072
tp529
a(I409953
I410036
tp530
a(I425712
I426010
tp531
a(I509067
I509670
tp532
a(I581588
I581725
tp533
a(I607944
I608313
tp534
a(I645586
I645763
tp535
a(I674659
I675215
tp536
a(I764227
I764612
tp537
a(I820024
I820372
tp538
a(I861232
I861766
tp539
a(I911352
I911832
tp540
a(I975791
I976161
tp541
a(I1021302
I1021546
tp542
a(I1066155
I1066366
tp543
a(I1089912
I1090385
tp544
a(I1162932
I1163316
tp545
a(I1210242
I1210716
tp546
a(I1267092
I1267553
tp547
a(I1314970
I1315133
tp548
a(I1338860
I1339502
tp549
a(I1409374
I1409608
tp550
a(I1430710
I1430999
tp551
a(I1460224
I1460348
tp552
a(I1478204
I1478537
tp553
a(I1538116
I1538308
tp554
a(I1570444
I1570470
tp555
a(I1595362
I1596031
tp556
a(I1712691
I1713209
tp557
a(I1788632
I1789103
tp558
a(I1835764
I1835954
tp559
a(I1875718
I1876315
tp560
a(I1950440
I1950582
tp561
a(I1969446
I1969901
tp562
a(I2019066
I2019282
tp563
a(I2042437
I2042937
tp564
a(I2104166
I2105150
tp565
a(I2238133
I2238339
tp566
a(I2277778
I2278251
tp567
a(I2337048
I2337161
tp568
a(I2350978
I2351222
tp569
a(I2401665
I2402036
tp570
a(I2449439
I2449814
tp571
a(I2480637
I2480735
tp572
aa(lp573
(I163
I187
tp574
a(I17624
I18185
tp575
a(I75138
I75623
tp576
a(I116946
I117130
tp577
a(I165652
I166173
tp578
a(I308599
I308851
tp579
a(I352602
I352817
tp580
a(I385072
I385180
tp581
a(I410036
I410116
tp582
a(I426010
I426313
tp583
a(I509670
I510242
tp584
a(I581725
I581878
tp585
a(I608313
I608687
tp586
a(I645763
I645953
tp587
a(I675215
I675784
tp588
a(I764612
I764999
tp589
a(I820372
I820720
tp590
a(I861766
I862302
tp591
a(I911832
I912329
tp592
a(I976161
I976548
tp593
a(I1021546
I1021795
tp594
a(I1066366
I1066584
tp595
a(I1090385
I1090875
tp596
a(I1163316
I1163704
tp597
a(I1210716
I1211203
tp598
a(I1267553
I1268016
tp599
a(I1315133
I1315297
tp600
a(I1339502
I1340130
tp601
a(I1409608
I1409837
tp602
a(I1430999
I1431290
tp603
a(I1460348
I1460475
tp604
a(I1478537
I1478876
tp605
a(I1538308
I1538503
tp606
a(I1570470
I1570497
tp607
a(I1596031
I1596695
tp608
a(I1713209
I1713735
tp609
a(I1789103
I1789581
tp610
a(I1835954
I1836156
tp611
a(I1876315
I1876959
tp612
a(I1950582
I1950734
tp613
a(I1969901
I1970344
tp614
a(I2019282
I2019507
tp615
a(I2042937
I2043445
tp616
a(I2105150
I2106156
tp617
a(I2238339
I2238564
tp618
a(I2278251
I2278709
tp619
a(I2337161
I2337285
tp620
a(I2351222
I2351470
tp621
a(I2402036
I2402418
tp622
a(I2449814
I2450202
tp623
a(I2480735
I2480830
tp624
aa(lp625
(I187
I215
tp626
a(I18185
I18764
tp627
a(I75623
I76099
tp628
a(I117130
I117309
tp629
a(I166173
I166697
tp630
a(I308851
I309097
tp631
a(I352817
I353032
tp632
a(I385180
I385290
tp633
a(I410116
I410192
tp634
a(I426313
I426624
tp635
a(I510242
I510824
tp636
a(I581878
I582044
tp637
a(I608687
I609054
tp638
a(I645953
I646128
tp639
a(I675784
I676351
tp640
a(I764999
I765381
tp641
a(I820720
I821053
tp642
a(I862302
I862868
tp643
a(I912329
I912820
tp644
a(I976548
I976922
tp645
a(I1021795
I1022036
tp646
a(I1066584
I1066800
tp647
a(I1090875
I1091349
tp648
a(I1163704
I1164092
tp649
a(I1211203
I1211680
tp650
a(I1268016
I1268490
tp651
a(I1315297
I1315462
tp652
a(I1340130
I1340775
tp653
a(I1409837
I1410061
tp654
a(I1431290
I1431584
tp655
a(I1460475
I1460604
tp656
a(I1478876
I1479206
tp657
a(I1538503
I1538721
tp658
a(I1570497
I1570517
tp659
a(I1596695
I1597362
tp660
a(I1713735
I1714255
tp661
a(I1789581
I1790056
tp662
a(I1836156
I1836345
tp663
a(I1876959
I1877582
tp664
a(I1950734
I1950872
tp665
a(I1970344
I1970805
tp666
a(I2019507
I2019732
tp667
a(I2043445
I2043967
tp668
a(I2106156
I2107174
tp669
a(I2238564
I2238770
tp670
a(I2278709
I2279171
tp671
a(I2337285
I2337401
tp672
a(I2351470
I2351707
tp673
a(I2402418
I2402787
tp674
a(I2450202
I2450584
tp675
a(I2480830
I2480934
tp676
aa(lp677
(I215
I242
tp678
a(I18764
I19317
tp679
a(I76099
I76543
tp680
a(I117309
I117492
tp681
a(I166697
I167268
tp682
a(I309097
I309348
tp683
a(I353032
I353237
tp684
a(I385290
I385402
tp685
a(I410192
I410265
tp686
a(I426624
I426923
tp687
a(I510824
I511342
tp688
a(I582044
I582203
tp689
a(I609054
I609406
tp690
a(I646128
I646285
tp691
a(I676351
I676933
tp692
a(I765381
I765773
tp693
a(I821053
I821391
tp694
a(I862868
I863396
tp695
a(I912820
I913290
tp696
a(I976922
I977309
tp697
a(I1022036
I1022281
tp698
a(I1066800
I1067014
tp699
a(I1091349
I1091838
tp700
a(I1164092
I1164487
tp701
a(I1211680
I1212151
tp702
a(I1268490
I1268956
tp703
a(I1315462
I1315619
tp704
a(I1340775
I1341390
tp705
a(I1410061
I1410279
tp706
a(I1431584
I1431876
tp707
a(I1460604
I1460725
tp708
a(I1479206
I1479551
tp709
a(I1538721
I1538935
tp710
a(I1570517
I1570546
tp711
a(I1597362
I1598024
tp712
a(I1714255
I1714781
tp713
a(I1790056
I1790531
tp714
a(I1836345
I1836523
tp715
a(I1877582
I1878222
tp716
a(I1950872
I1951008
tp717
a(I1970805
I1971235
tp718
a(I2019732
I2019942
tp719
a(I2043967
I2044469
tp720
a(I2107174
I2108159
tp721
a(I2238770
I2238986
tp722
a(I2279171
I2279631
tp723
a(I2337401
I2337518
tp724
a(I2351707
I2351943
tp725
a(I2402787
I2403166
tp726
a(I2450584
I2450972
tp727
a(I2480934
I2481020
tp728
aa(lp729
(I242
I268
tp730
a(I19317
I19847
tp731
a(I76543
I77009
tp732
a(I117492
I117685
tp733
a(I167268
I167867
tp734
a(I309348
I309604
tp735
a(I353237
I353456
tp736
a(I385402
I385510
tp737
a(I410265
I410335
tp738
a(I426923
I427236
tp739
a(I511342
I511869
tp740
a(I582203
I582378
tp741
a(I609406
I609765
tp742
a(I646285
I646458
tp743
a(I676933
I677514
tp744
a(I765773
I766166
tp745
a(I821391
I821740
tp746
a(I863396
I863939
tp747
a(I913290
I913782
tp748
a(I977309
I977696
tp749
a(I1022281
I1022532
tp750
a(I1067014
I1067233
tp751
a(I1091838
I1092324
tp752
a(I1164487
I1164878
tp753
a(I1212151
I1212653
tp754
a(I1268956
I1269392
tp755
a(I1315619
I1315774
tp756
a(I1341390
I1342036
tp757
a(I1410279
I1410491
tp758
a(I1431876
I1432161
tp759
a(I1460725
I1460854
tp760
a(I1479551
I1479884
tp761
a(I1538935
I1539141
tp762
a(I1570546
I1570578
tp763
a(I1598024
I1598714
tp764
a(I1714781
I1715309
tp765
a(I1790531
I1791022
tp766
a(I1836523
I1836713
tp767
a(I1878222
I1878854
tp768
a(I1951008
I1951152
tp769
a(I1971235
I1971664
tp770
a(I2019942
I2020157
tp771
a(I2044469
I2044967
tp772
a(I2108159
I2109188
tp773
a(I2238986
I2239190
tp774
a(I2279631
I2280098
tp775
a(I2337518
I2337631
tp776
a(I2351943
I2352174
tp777
a(I2403166
I2403540
tp778
a(I2450972
I2451371
tp779
a(I2481020
I2481112
tp780
aa(lp781
(I268
I288
tp782
a(I19847
I20382
tp783
a(I77009
I77460
tp784
a(I117685
I117879
tp785
a(I167867
I168458
tp786
a(I309604
I309856
tp787
a(I353456
I353673
tp788
a(I385510
I385622
tp789
a(I410335
I410408
tp790
a(I427236
I427575
tp791
a(I511869
I512393
tp792
a(I582378
I582553
tp793
a(I609765
I610118
tp794
a(I646458
I646622
tp795
a(I677514
I678090
tp796
a(I766166
I766536
tp797
a(I821740
I822072
tp798
a(I863939
I864485
tp799
a(I913782
I914249
tp800
a(I977696
I978058
tp801
a(I1022532
I1022767
tp802
a(I1067233
I1067450
tp803
a(I1092324
I1092796
tp804
a(I1164878
I1165253
tp805
a(I1212653
I1213123
tp806
a(I1269392
I1269839
tp807
a(I1315774
I1315925
tp808
a(I1342036
I1342640
tp809
a(I1410491
I1410707
tp810
a(I1432161
I1432436
tp811
a(I1460854
I1460967
tp812
a(I1479884
I1480221
tp813
a(I1539141
I1539352
tp814
a(I1570578
I1570605
tp815
a(I1598714
I1599396
tp816
a(I1715309
I1715840
tp817
a(I1791022
I1791474
tp818
a(I1836713
I1836897
tp819
a(I1878854
I1879475
tp820
a(I1951152
I1951293
tp821
a(I1971664
I1972082
tp822
a(I2020157
I2020363
tp823
a(I2044967
I2045439
tp824
a(I2109188
I2110188
tp825
a(I2239190
I2239403
tp826
a(I2280098
I2280540
tp827
a(I2337631
I2337759
tp828
a(I2352174
I2352413
tp829
a(I2403540
I2403902
tp830
a(I2451371
I2451764
tp831
a(I2481112
I2481209
tp832
aa(lp833
(I288
I307
tp834
a(I20382
I20926
tp835
a(I77460
I77910
tp836
a(I117879
I118069
tp837
a(I168458
I169053
tp838
a(I309856
I310100
tp839
a(I353673
I353886
tp840
a(I385622
I385740
tp841
a(I410408
I410480
tp842
a(I427575
I427949
tp843
a(I512393
I512920
tp844
a(I582553
I582721
tp845
a(I610118
I610467
tp846
a(I646622
I646794
tp847
a(I678090
I678662
tp848
a(I766536
I766907
tp849
a(I822072
I822400
tp850
a(I864485
I864986
tp851
a(I914249
I914727
tp852
a(I978058
I978420
tp853
a(I1022767
I1022999
tp854
a(I1067450
I1067662
tp855
a(I1092796
I1093293
tp856
a(I1165253
I1165619
tp857
a(I1213123
I1213571
tp858
a(I1269839
I1270308
tp859
a(I1315925
I1316073
tp860
a(I1342640
I1343237
tp861
a(I1410707
I1410939
tp862
a(I1432436
I1432716
tp863
a(I1460967
I1461089
tp864
a(I1480221
I1480572
tp865
a(I1539352
I1539552
tp866
a(I1570605
I1570633
tp867
a(I1599396
I1600099
tp868
a(I1715840
I1716352
tp869
a(I1791474
I1791933
tp870
a(I1836897
I1837086
tp871
a(I1879475
I1880101
tp872
a(I1951293
I1951430
tp873
a(I1972082
I1972503
tp874
a(I2020363
I2020580
tp875
a(I2045439
I2045916
tp876
a(I2110188
I2111203
tp877
a(I2239403
I2239610
tp878
a(I2280540
I2280973
tp879
a(I2337759
I2337879
tp880
a(I2352413
I2352628
tp881
a(I2403902
I2404270
tp882
a(I2451764
I2452145
tp883
a(I2481209
I2481293
tp884
aa(lp885
(I307
I335
tp886
a(I20926
I21469
tp887
a(I77910
I78354
tp888
a(I118069
I118264
tp889
a(I169053
I169657
tp890
a(I310100
I310352
tp891
a(I353886
I354091
tp892
a(I385740
I385858
tp893
a(I410480
I410546
tp894
a(I427949
I428308
tp895
a(I512920
I513436
tp896
a(I582721
I582884
tp897
a(I610467
I610810
tp898
a(I646794
I646971
tp899
a(I678662
I679231
tp900
a(I766907
I767283
tp901
a(I822400
I822713
tp902
a(I864986
I865538
tp903
a(I914727
I915224
tp904
a(I978420
I978785
tp905
a(I1022999
I1023240
tp906
a(I1067662
I1067868
tp907
a(I1093293
I1093797
tp908
a(I1165619
I1165993
tp909
a(I1213571
I1214032
tp910
a(I1270308
I1270791
tp911
a(I1316073
I1316223
tp912
a(I1343237
I1343866
tp913
a(I1410939
I1411150
tp914
a(I1432716
I1432991
tp915
a(I1461089
I1461212
tp916
a(I1480572
I1480909
tp917
a(I1539552
I1539784
tp918
a(I1570633
I1570665
tp919
a(I1600099
I1600794
tp920
a(I1716352
I1716859
tp921
a(I1791933
I1792375
tp922
a(I1837086
I1837272
tp923
a(I1880101
I1880716
tp924
a(I1951430
I1951566
tp925
a(I1972503
I1972910
tp926
a(I2020580
I2020775
tp927
a(I2045916
I2046396
tp928
a(I2111203
I2112205
tp929
a(I2239610
I2239812
tp930
a(I2280973
I2281431
tp931
a(I2337879
I2337997
tp932
a(I2352628
I2352861
tp933
a(I2404270
I2404620
tp934
a(I2452145
I2452534
tp935
a(I2481293
I2481389
tp936
aa(lp937
(I335
I363
tp938
a(I21469
I22006
tp939
a(I78354
I78762
tp940
a(I118264
I118467
tp941
a(I169657
I170262
tp942
a(I310352
I310612
tp943
a(I354091
I354303
tp944
a(I385858
I385972
tp945
a(I410546
I410621
tp946
a(I428308
I428639
tp947
a(I513436
I513960
tp948
a(I582884
I583046
tp949
a(I610810
I611148
tp950
a(I646971
I647138
tp951
a(I679231
I679790
tp952
a(I767283
I767664
tp953
a(I822713
I823028
tp954
a(I865538
I866038
tp955
a(I915224
I915699
tp956
a(I978785
I979131
tp957
a(I1023240
I1023473
tp958
a(I1067868
I1068076
tp959
a(I1093797
I1094301
tp960
a(I1165993
I1166364
tp961
a(I1214032
I1214472
tp962
a(I1270791
I1271263
tp963
a(I1316223
I1316383
tp964
a(I1343866
I1344470
tp965
a(I1411150
I1411365
tp966
a(I1432991
I1433254
tp967
a(I1461212
I1461322
tp968
a(I1480909
I1481253
tp969
a(I1539784
I1540014
tp970
a(I1570665
I1570697
tp971
a(I1600794
I1601496
tp972
a(I1716859
I1717377
tp973
a(I1792375
I1792813
tp974
a(I1837272
I1837453
tp975
a(I1880716
I1881321
tp976
a(I1951566
I1951701
tp977
a(I1972910
I1973315
tp978
a(I2020775
I2020975
tp979
a(I2046396
I2046863
tp980
a(I2112205
I2113231
tp981
a(I2239812
I2240033
tp982
a(I2281431
I2281884
tp983
a(I2337997
I2338104
tp984
a(I2352861
I2353099
tp985
a(I2404620
I2404985
tp986
a(I2452534
I2452914
tp987
a(I2481389
I2481489
tp988
aa(lp989
(I363
I388
tp990
a(I22006
I22530
tp991
a(I78762
I79167
tp992
a(I118467
I118681
tp993
a(I170262
I170858
tp994
a(I310612
I310853
tp995
a(I354303
I354515
tp996
a(I385972
I386091
tp997
a(I410621
I410685
tp998
a(I428639
I428958
tp999
a(I513960
I514445
tp1000
a(I583046
I583195
tp1001
a(I611148
I611475
tp1002
a(I647138
I647312
tp1003
a(I679790
I680344
tp1004
a(I767664
I768033
tp1005
a(I823028
I823324
tp1006
a(I866038
I866513
tp1007
a(I915699
I916165
tp1008
a(I979131
I979471
tp1009
a(I1023473
I1023698
tp1010
a(I1068076
I1068272
tp1011
a(I1094301
I1094792
tp1012
a(I1166364
I1166690
tp1013
a(I1214472
I1214889
tp1014
a(I1271263
I1271695
tp1015
a(I1316383
I1316538
tp1016
a(I1344470
I1345083
tp1017
a(I1411365
I1411590
tp1018
a(I1433254
I1433523
tp1019
a(I1461322
I1461439
tp1020
a(I1481253
I1481584
tp1021
a(I1540014
I1540236
tp1022
a(I1570697
I1570725
tp1023
a(I1601496
I1602194
tp1024
a(I1717377
I1717863
tp1025
a(I1792813
I1793244
tp1026
a(I1837453
I1837631
tp1027
a(I1881321
I1881901
tp1028
a(I1951701
I1951829
tp1029
a(I1973315
I1973692
tp1030
a(I2020975
I2021186
tp1031
a(I2046863
I2047334
tp1032
a(I2113231
I2114239
tp1033
a(I2240033
I2240245
tp1034
a(I2281884
I2282314
tp1035
a(I2338104
I2338216
tp1036
a(I2353099
I2353318
tp1037
a(I2404985
I2405342
tp1038
a(I2452914
I2453289
tp1039
a(I2481489
I2481576
tp1040
aa(lp1041
(I388
I420
tp1042
a(I22530
I23053
tp1043
a(I79167
I79575
tp1044
a(I118681
I118894
tp1045
a(I170858
I171460
tp1046
a(I310853
I311108
tp1047
a(I354515
I354728
tp1048
a(I386091
I386209
tp1049
a(I410685
I410759
tp1050
a(I428958
I429268
tp1051
a(I514445
I514955
tp1052
a(I583195
I583335
tp1053
a(I611475
I611811
tp1054
a(I647312
I647485
tp1055
a(I680344
I680893
tp1056
a(I768033
I768396
tp1057
a(I823324
I823636
tp1058
a(I866513
I867007
tp1059
a(I916165
I916623
tp1060
a(I979471
I979804
tp1061
a(I1023698
I1023928
tp1062
a(I1068272
I1068476
tp1063
a(I1094792
I1095278
tp1064
a(I1166690
I1167039
tp1065
a(I1214889
I1215312
tp1066
a(I1271695
I1272164
tp1067
a(I1316538
I1316687
tp1068
a(I1345083
I1345675
tp1069
a(I1411590
I1411799
tp1070
a(I1433523
I1433790
tp1071
a(I1461439
I1461548
tp1072
a(I1481584
I1481919
tp1073
a(I1540236
I1540470
tp1074
a(I1570725
I1570754
tp1075
a(I1602194
I1602892
tp1076
a(I1717863
I1718348
tp1077
a(I1793244
I1793671
tp1078
a(I1837631
I1837811
tp1079
a(I1881901
I1882492
tp1080
a(I1951829
I1951956
tp1081
a(I1973692
I1974073
tp1082
a(I2021186
I2021392
tp1083
a(I2047334
I2047789
tp1084
a(I2114239
I2115240
tp1085
a(I2240245
I2240455
tp1086
a(I2282314
I2282751
tp1087
a(I2338216
I2338331
tp1088
a(I2353318
I2353551
tp1089
a(I2405342
I2405699
tp1090
a(I2453289
I2453663
tp1091
a(I2481576
I2481669
tp1092
aa(lp1093
(I420
I446
tp1094
a(I23053
I23568
tp1095
a(I79575
I79984
tp1096
a(I118894
I119087
tp1097
a(I171460
I172021
tp1098
a(I311108
I311358
tp1099
a(I354728
I354920
tp1100
a(I386209
I386330
tp1101
a(I410759
I410824
tp1102
a(I429268
I429566
tp1103
a(I514955
I515456
tp1104
a(I583335
I583473
tp1105
a(I611811
I612142
tp1106
a(I647485
I647650
tp1107
a(I680893
I681450
tp1108
a(I768396
I768750
tp1109
a(I823636
I823952
tp1110
a(I867007
I867494
tp1111
a(I916623
I917066
tp1112
a(I979804
I980128
tp1113
a(I1023928
I1024157
tp1114
a(I1068476
I1068691
tp1115
a(I1095278
I1095734
tp1116
a(I1167039
I1167390
tp1117
a(I1215312
I1215712
tp1118
a(I1272164
I1272598
tp1119
a(I1316687
I1316844
tp1120
a(I1345675
I1346248
tp1121
a(I1411799
I1412010
tp1122
a(I1433790
I1434056
tp1123
a(I1461548
I1461664
tp1124
a(I1481919
I1482228
tp1125
a(I1540470
I1540702
tp1126
a(I1570754
I1570781
tp1127
a(I1602892
I1603562
tp1128
a(I1718348
I1718831
tp1129
a(I1793671
I1794083
tp1130
a(I1837811
I1837984
tp1131
a(I1882492
I1883059
tp1132
a(I1951956
I1952081
tp1133
a(I1974073
I1974450
tp1134
a(I2021392
I2021599
tp1135
a(I2047789
I2048232
tp1136
a(I2115240
I2116213
tp1137
a(I2240455
I2240677
tp1138
a(I2282751
I2283185
tp1139
a(I2338331
I2338446
tp1140
a(I2353551
I2353786
tp1141
a(I2405699
I2406039
tp1142
a(I2453663
I2454030
tp1143
a(I2481669
I2481761
tp1144
aa(lp1145
(I446
I475
tp1146
a(I23568
I24111
tp1147
a(I79984
I80409
tp1148
a(I119087
I119282
tp1149
a(I172021
I172554
tp1150
a(I311358
I311592
tp1151
a(I354920
I355119
tp1152
a(I386330
I386466
tp1153
a(I410824
I410892
tp1154
a(I429566
I429872
tp1155
a(I515456
I515987
tp1156
a(I583473
I583618
tp1157
a(I612142
I612456
tp1158
a(I647650
I647830
tp1159
a(I681450
I681979
tp1160
a(I768750
I769103
tp1161
a(I823952
I824255
tp1162
a(I867494
I868019
tp1163
a(I917066
I917524
tp1164
a(I980128
I980443
tp1165
a(I1024157
I1024384
tp1166
a(I1068691
I1068906
tp1167
a(I1095734
I1096174
tp1168
a(I1167390
I1167730
tp1169
a(I1215712
I1216123
tp1170
a(I1272598
I1273041
tp1171
a(I1316844
I1316993
tp1172
a(I1346248
I1346821
tp1173
a(I1412010
I1412230
tp1174
a(I1434056
I1434333
tp1175
a(I1461664
I1461778
tp1176
a(I1482228
I1482536
tp1177
a(I1540702
I1540949
tp1178
a(I1570781
I1570807
tp1179
a(I1603562
I1604217
tp1180
a(I1718831
I1719295
tp1181
a(I1794083
I1794500
tp1182
a(I1837984
I1838162
tp1183
a(I1883059
I1883606
tp1184
a(I1952081
I1952197
tp1185
a(I1974450
I1974870
tp1186
a(I2021599
I2021798
tp1187
a(I2048232
I2048678
tp1188
a(I2116213
I2117174
tp1189
a(I2240677
I2240881
tp1190
a(I2283185
I2283600
tp1191
a(I2338446
I2338564
tp1192
a(I2353786
I2354016
tp1193
a(I2406039
I2406370
tp1194
a(I2454030
I2454407
tp1195
a(I2481761
I2481852
tp1196
aa(lp1197
(I475
I500
tp1198
a(I24111
I24610
tp1199
a(I80409
I80841
tp1200
a(I119282
I119475
tp1201
a(I172554
I173069
tp1202
a(I311592
I311819
tp1203
a(I355119
I355309
tp1204
a(I386466
I386589
tp1205
a(I410892
I410956
tp1206
a(I429872
I430177
tp1207
a(I515987
I516481
tp1208
a(I583618
I583750
tp1209
a(I612456
I612776
tp1210
a(I647830
I647997
tp1211
a(I681979
I682475
tp1212
a(I769103
I769441
tp1213
a(I824255
I824550
tp1214
a(I868019
I868517
tp1215
a(I917524
I917984
tp1216
a(I980443
I980736
tp1217
a(I1024384
I1024597
tp1218
a(I1068906
I1069109
tp1219
a(I1096174
I1096600
tp1220
a(I1167730
I1168075
tp1221
a(I1216123
I1216537
tp1222
a(I1273041
I1273488
tp1223
a(I1316993
I1317140
tp1224
a(I1346821
I1347383
tp1225
a(I1412230
I1412440
tp1226
a(I1434333
I1434581
tp1227
a(I1461778
I1461882
tp1228
a(I1482536
I1482822
tp1229
a(I1540949
I1541199
tp1230
a(I1570807
I1570838
tp1231
a(I1604217
I1604845
tp1232
a(I1719295
I1719734
tp1233
a(I1794500
I1794931
tp1234
a(I1838162
I1838333
tp1235
a(I1883606
I1884131
tp1236
a(I1952197
I1952309
tp1237
a(I1974870
I1975257
tp1238
a(I2021798
I2021989
tp1239
a(I2048678
I2049130
tp1240
a(I2117174
I2118106
tp1241
a(I2240881
I2241092
tp1242
a(I2283600
I2284030
tp1243
a(I2338564
I2338672
tp1244
a(I2354016
I2354231
tp1245
a(I2406370
I2406702
tp1246
a(I2454407
I2454753
tp1247
a(I2481852
I2481947
tp1248
aa(lp1249
(I500
I533
tp1250
a(I24610
I25142
tp1251
a(I80841
I81276
tp1252
a(I119475
I119663
tp1253
a(I173069
I173599
tp1254
a(I311819
I312061
tp1255
a(I355309
I355489
tp1256
a(I386589
I386713
tp1257
a(I410956
I411020
tp1258
a(I430177
I430481
tp1259
a(I516481
I516990
tp1260
a(I583750
I583875
tp1261
a(I612776
I613088
tp1262
a(I647997
I648177
tp1263
a(I682475
I682970
tp1264
a(I769441
I769787
tp1265
a(I824550
I824843
tp1266
a(I868517
I869008
tp1267
a(I917984
I918448
tp1268
a(I980736
I981028
tp1269
a(I1024597
I1024811
tp1270
a(I1069109
I1069310
tp1271
a(I1096600
I1097035
tp1272
a(I1168075
I1168422
tp1273
a(I1216537
I1216977
tp1274
a(I1273488
I1273930
tp1275
a(I1317140
I1317301
tp1276
a(I1347383
I1347972
tp1277
a(I1412440
I1412642
tp1278
a(I1434581
I1434841
tp1279
a(I1461882
I1462001
tp1280
a(I1482822
I1483110
tp1281
a(I1541199
I1541439
tp1282
a(I1570838
I1570877
tp1283
a(I1604845
I1605471
tp1284
a(I1719734
I1720190
tp1285
a(I1794931
I1795357
tp1286
a(I1838333
I1838504
tp1287
a(I1884131
I1884673
tp1288
a(I1952309
I1952427
tp1289
a(I1975257
I1975665
tp1290
a(I2021989
I2022183
tp1291
a(I2049130
I2049586
tp1292
a(I2118106
I2119077
tp1293
a(I2241092
I2241300
tp1294
a(I2284030
I2284444
tp1295
a(I2338672
I2338779
tp1296
a(I2354231
I2354460
tp1297
a(I2406702
I2407043
tp1298
a(I2454753
I2455121
tp1299
a(I2481947
I2482040
tp1300
aa(lp1301
(I533
I559
tp1302
a(I25142
I25649
tp1303
a(I81276
I81693
tp1304
a(I119663
I119866
tp1305
a(I173599
I174131
tp1306
a(I312061
I312304
tp1307
a(I355489
I355674
tp1308
a(I386713
I386849
tp1309
a(I411020
I411086
tp1310
a(I430481
I430795
tp1311
a(I516990
I517488
tp1312
a(I583875
I584001
tp1313
a(I613088
I613411
tp1314
a(I648177
I648350
tp1315
a(I682970
I683486
tp1316
a(I769787
I770130
tp1317
a(I824843
I825127
tp1318
a(I869008
I869506
tp1319
a(I918448
I918889
tp1320
a(I981028
I981306
tp1321
a(I1024811
I1025035
tp1322
a(I1069310
I1069509
tp1323
a(I1097035
I1097465
tp1324
a(I1168422
I1168756
tp1325
a(I1216977
I1217382
tp1326
a(I1273930
I1274368
tp1327
a(I1317301
I1317446
tp1328
a(I1347972
I1348561
tp1329
a(I1412642
I1412851
tp1330
a(I1434841
I1435095
tp1331
a(I1462001
I1462105
tp1332
a(I1483110
I1483417
tp1333
a(I1541439
I1541683
tp1334
a(I1570877
I1570914
tp1335
a(I1605471
I1606082
tp1336
a(I1720190
I1720646
tp1337
a(I1795357
I1795780
tp1338
a(I1838504
I1838687
tp1339
a(I1884673
I1885212
tp1340
a(I1952427
I1952535
tp1341
a(I1975665
I1976066
tp1342
a(I2022183
I2022388
tp1343
a(I2049586
I2050037
tp1344
a(I2119077
I2120051
tp1345
a(I2241300
I2241508
tp1346
a(I2284444
I2284858
tp1347
a(I2338779
I2338894
tp1348
a(I2354460
I2354692
tp1349
a(I2407043
I2407369
tp1350
a(I2455121
I2455501
tp1351
a(I2482040
I2482139
tp1352
aa(lp1353
(I559
I594
tp1354
a(I25649
I26167
tp1355
a(I81693
I82082
tp1356
a(I119866
I120063
tp1357
a(I174131
I174665
tp1358
a(I312304
I312553
tp1359
a(I355674
I355856
tp1360
a(I386849
I386994
tp1361
a(I411086
I411156
tp1362
a(I430795
I431114
tp1363
a(I517488
I517984
tp1364
a(I584001
I584113
tp1365
a(I613411
I613733
tp1366
a(I648350
I648522
tp1367
a(I683486
I683993
tp1368
a(I770130
I770478
tp1369
a(I825127
I825424
tp1370
a(I869506
I869985
tp1371
a(I918889
I919361
tp1372
a(I981306
I981598
tp1373
a(I1025035
I1025245
tp1374
a(I1069509
I1069697
tp1375
a(I1097465
I1097903
tp1376
a(I1168756
I1169096
tp1377
a(I1217382
I1217783
tp1378
a(I1274368
I1274811
tp1379
a(I1317446
I1317602
tp1380
a(I1348561
I1349117
tp1381
a(I1412851
I1413047
tp1382
a(I1435095
I1435359
tp1383
a(I1462105
I1462212
tp1384
a(I1483417
I1483713
tp1385
a(I1541683
I1541931
tp1386
a(I1570914
I1570947
tp1387
a(I1606082
I1606703
tp1388
a(I1720646
I1721118
tp1389
a(I1795780
I1796197
tp1390
a(I1838687
I1838879
tp1391
a(I1885212
I1885738
tp1392
a(I1952535
I1952645
tp1393
a(I1976066
I1976471
tp1394
a(I2022388
I2022577
tp1395
a(I2050037
I2050464
tp1396
a(I2120051
I2120977
tp1397
a(I2241508
I2241708
tp1398
a(I2284858
I2285272
tp1399
a(I2338894
I2338998
tp1400
a(I2354692
I2354926
tp1401
a(I2407369
I2407698
tp1402
a(I2455501
I2455867
tp1403
a(I2482139
I2482242
tp1404
aa(lp1405
(I594
I626
tp1406
a(I26167
I26686
tp1407
a(I82082
I82479
tp1408
a(I120063
I120258
tp1409
a(I174665
I175233
tp1410
a(I312553
I312801
tp1411
a(I355856
I356042
tp1412
a(I386994
I387149
tp1413
a(I411156
I411227
tp1414
a(I431114
I431431
tp1415
a(I517984
I518494
tp1416
a(I584113
I584232
tp1417
a(I613733
I614046
tp1418
a(I648522
I648703
tp1419
a(I683993
I684488
tp1420
a(I770478
I770827
tp1421
a(I825424
I825699
tp1422
a(I869985
I870462
tp1423
a(I919361
I919818
tp1424
a(I981598
I981880
tp1425
a(I1025245
I1025477
tp1426
a(I1069697
I1069892
tp1427
a(I1097903
I1098368
tp1428
a(I1169096
I1169442
tp1429
a(I1217783
I1218191
tp1430
a(I1274811
I1275255
tp1431
a(I1317602
I1317762
tp1432
a(I1349117
I1349667
tp1433
a(I1413047
I1413252
tp1434
a(I1435359
I1435613
tp1435
a(I1462212
I1462312
tp1436
a(I1483713
I1484005
tp1437
a(I1541931
I1542188
tp1438
a(I1570947
I1570990
tp1439
a(I1606703
I1607331
tp1440
a(I1721118
I1721599
tp1441
a(I1796197
I1796585
tp1442
a(I1838879
I1839075
tp1443
a(I1885738
I1886272
tp1444
a(I1952645
I1952747
tp1445
a(I1976471
I1976859
tp1446
a(I2022577
I2022762
tp1447
a(I2050464
I2050906
tp1448
a(I2120977
I2121895
tp1449
a(I2241708
I2241918
tp1450
a(I2285272
I2285672
tp1451
a(I2338998
I2339102
tp1452
a(I2354926
I2355177
tp1453
a(I2407698
I2408026
tp1454
a(I2455867
I2456227
tp1455
a(I2482242
I2482342
tp1456
aa(lp1457
(I626
I668
tp1458
a(I26686
I27188
tp1459
a(I82479
I82896
tp1460
a(I120258
I120479
tp1461
a(I175233
I175839
tp1462
a(I312801
I313047
tp1463
a(I356042
I356232
tp1464
a(I387149
I387310
tp1465
a(I411227
I411304
tp1466
a(I431431
I431764
tp1467
a(I518494
I518995
tp1468
a(I584232
I584354
tp1469
a(I614046
I614377
tp1470
a(I648703
I648896
tp1471
a(I684488
I685016
tp1472
a(I770827
I771181
tp1473
a(I825699
I825987
tp1474
a(I870462
I870962
tp1475
a(I919818
I920295
tp1476
a(I981880
I982165
tp1477
a(I1025477
I1025710
tp1478
a(I1069892
I1070088
tp1479
a(I1098368
I1098845
tp1480
a(I1169442
I1169785
tp1481
a(I1218191
I1218599
tp1482
a(I1275255
I1275700
tp1483
a(I1317762
I1317933
tp1484
a(I1349667
I1350246
tp1485
a(I1413252
I1413448
tp1486
a(I1435613
I1435851
tp1487
a(I1462312
I1462422
tp1488
a(I1484005
I1484309
tp1489
a(I1542188
I1542452
tp1490
a(I1570990
I1571039
tp1491
a(I1607331
I1607945
tp1492
a(I1721599
I1722088
tp1493
a(I1796585
I1796981
tp1494
a(I1839075
I1839280
tp1495
a(I1886272
I1886808
tp1496
a(I1952747
I1952859
tp1497
a(I1976859
I1977252
tp1498
a(I2022762
I2022942
tp1499
a(I2050906
I2051337
tp1500
a(I2121895
I2122841
tp1501
a(I2241918
I2242132
tp1502
a(I2285672
I2286096
tp1503
a(I2339102
I2339211
tp1504
a(I2355177
I2355440
tp1505
a(I2408026
I2408359
tp1506
a(I2456227
I2456593
tp1507
a(I2482342
I2482447
tp1508
aa(lp1509
(I668
I702
tp1510
a(I27188
I27687
tp1511
a(I82896
I83286
tp1512
a(I120479
I120694
tp1513
a(I175839
I176413
tp1514
a(I313047
I313305
tp1515
a(I356232
I356422
tp1516
a(I387310
I387477
tp1517
a(I411304
I411381
tp1518
a(I431764
I432091
tp1519
a(I518995
I519491
tp1520
a(I584354
I584486
tp1521
a(I614377
I614697
tp1522
a(I648896
I649090
tp1523
a(I685016
I685540
tp1524
a(I771181
I771532
tp1525
a(I825987
I826276
tp1526
a(I870962
I871450
tp1527
a(I920295
I920766
tp1528
a(I982165
I982446
tp1529
a(I1025710
I1025942
tp1530
a(I1070088
I1070289
tp1531
a(I1098845
I1099301
tp1532
a(I1169785
I1170128
tp1533
a(I1218599
I1219011
tp1534
a(I1275700
I1276138
tp1535
a(I1317933
I1318111
tp1536
a(I1350246
I1350805
tp1537
a(I1413448
I1413651
tp1538
a(I1435851
I1436102
tp1539
a(I1462422
I1462533
tp1540
a(I1484309
I1484611
tp1541
a(I1542452
I1542709
tp1542
a(I1571039
I1571086
tp1543
a(I1607945
I1608549
tp1544
a(I1722088
I1722568
tp1545
a(I1796981
I1797390
tp1546
a(I1839280
I1839492
tp1547
a(I1886808
I1887346
tp1548
a(I1952859
I1952963
tp1549
a(I1977252
I1977665
tp1550
a(I2022942
I2023124
tp1551
a(I2051337
I2051788
tp1552
a(I2122841
I2123763
tp1553
a(I2242132
I2242343
tp1554
a(I2286096
I2286507
tp1555
a(I2339211
I2339323
tp1556
a(I2355440
I2355693
tp1557
a(I2408359
I2408691
tp1558
a(I2456593
I2456967
tp1559
a(I2482447
I2482557
tp1560
aa(lp1561
(I702
I745
tp1562
a(I27687
I28210
tp1563
a(I83286
I83696
tp1564
a(I120694
I120910
tp1565
a(I176413
I177022
tp1566
a(I313305
I313562
tp1567
a(I356422
I356620
tp1568
a(I387477
I387665
tp1569
a(I411381
I411460
tp1570
a(I432091
I432441
tp1571
a(I519491
I520003
tp1572
a(I584486
I584614
tp1573
a(I614697
I615032
tp1574
a(I649090
I649291
tp1575
a(I685540
I686077
tp1576
a(I771532
I771899
tp1577
a(I826276
I826559
tp1578
a(I871450
I871949
tp1579
a(I920766
I921240
tp1580
a(I982446
I982732
tp1581
a(I1025942
I1026184
tp1582
a(I1070289
I1070490
tp1583
a(I1099301
I1099771
tp1584
a(I1170128
I1170483
tp1585
a(I1219011
I1219422
tp1586
a(I1276138
I1276572
tp1587
a(I1318111
I1318269
tp1588
a(I1350805
I1351370
tp1589
a(I1413651
I1413848
tp1590
a(I1436102
I1436349
tp1591
a(I1462533
I1462649
tp1592
a(I1484611
I1484927
tp1593
a(I1542709
I1542970
tp1594
a(I1571086
I1571138
tp1595
a(I1608549
I1609180
tp1596
a(I1722568
I1723044
tp1597
a(I1797390
I1797797
tp1598
a(I1839492
I1839710
tp1599
a(I1887346
I1887894
tp1600
a(I1952963
I1953080
tp1601
a(I1977665
I1978079
tp1602
a(I2023124
I2023314
tp1603
a(I2051788
I2052245
tp1604
a(I2123763
I2124710
tp1605
a(I2242343
I2242550
tp1606
a(I2286507
I2286928
tp1607
a(I2339323
I2339432
tp1608
a(I2355693
I2355956
tp1609
a(I2408691
I2409026
tp1610
a(I2456967
I2457348
tp1611
a(I2482557
I2482666
tp1612
aa(lp1613
(I745
I787
tp1614
a(I28210
I28719
tp1615
a(I83696
I84101
tp1616
a(I120910
I121120
tp1617
a(I177022
I177641
tp1618
a(I313562
I313819
tp1619
a(I356620
I356830
tp1620
a(I387665
I387852
tp1621
a(I411460
I411543
tp1622
a(I432441
I432792
tp1623
a(I520003
I520509
tp1624
a(I584614
I584755
tp1625
a(I615032
I615359
tp1626
a(I649291
I649482
tp1627
a(I686077
I686617
tp1628
a(I771899
I772280
tp1629
a(I826559
I826839
tp1630
a(I871949
I872426
tp1631
a(I921240
I921752
tp1632
a(I982732
I983042
tp1633
a(I1026184
I1026438
tp1634
a(I1070490
I1070692
tp1635
a(I1099771
I1100247
tp1636
a(I1170483
I1170826
tp1637
a(I1219422
I1219844
tp1638
a(I1276572
I1276990
tp1639
a(I1318269
I1318446
tp1640
a(I1351370
I1351925
tp1641
a(I1413848
I1414047
tp1642
a(I1436349
I1436587
tp1643
a(I1462649
I1462766
tp1644
a(I1484927
I1485252
tp1645
a(I1542970
I1543228
tp1646
a(I1571138
I1571191
tp1647
a(I1609180
I1609804
tp1648
a(I1723044
I1723553
tp1649
a(I1797797
I1798197
tp1650
a(I1839710
I1839937
tp1651
a(I1887894
I1888443
tp1652
a(I1953080
I1953194
tp1653
a(I1978079
I1978492
tp1654
a(I2023314
I2023504
tp1655
a(I2052245
I2052693
tp1656
a(I2124710
I2125688
tp1657
a(I2242550
I2242767
tp1658
a(I2286928
I2287366
tp1659
a(I2339432
I2339541
tp1660
a(I2355956
I2356230
tp1661
a(I2409026
I2409351
tp1662
a(I2457348
I2457712
tp1663
a(I2482666
I2482780
tp1664
aa(lp1665
(I787
I825
tp1666
a(I28719
I29227
tp1667
a(I84101
I84518
tp1668
a(I121120
I121359
tp1669
a(I177641
I178320
tp1670
a(I313819
I314085
tp1671
a(I356830
I357064
tp1672
a(I387852
I388063
tp1673
a(I411543
I411633
tp1674
a(I432792
I433160
tp1675
a(I520509
I521042
tp1676
a(I584755
I584902
tp1677
a(I615359
I615690
tp1678
a(I649482
I649678
tp1679
a(I686617
I687197
tp1680
a(I772280
I772678
tp1681
a(I826839
I827137
tp1682
a(I872426
I872919
tp1683
a(I921752
I922263
tp1684
a(I983042
I983361
tp1685
a(I1026438
I1026723
tp1686
a(I1070692
I1070908
tp1687
a(I1100247
I1100752
tp1688
a(I1170826
I1171171
tp1689
a(I1219844
I1220294
tp1690
a(I1276990
I1277449
tp1691
a(I1318446
I1318612
tp1692
a(I1351925
I1352520
tp1693
a(I1414047
I1414227
tp1694
a(I1436587
I1436831
tp1695
a(I1462766
I1462887
tp1696
a(I1485252
I1485600
tp1697
a(I1543228
I1543490
tp1698
a(I1571191
I1571254
tp1699
a(I1609804
I1610501
tp1700
a(I1723553
I1724081
tp1701
a(I1798197
I1798596
tp1702
a(I1839937
I1840179
tp1703
a(I1888443
I1889022
tp1704
a(I1953194
I1953325
tp1705
a(I1978492
I1978930
tp1706
a(I2023504
I2023679
tp1707
a(I2052693
I2053163
tp1708
a(I2125688
I2126664
tp1709
a(I2242767
I2243007
tp1710
a(I2287366
I2287817
tp1711
a(I2339541
I2339658
tp1712
a(I2356230
I2356529
tp1713
a(I2409351
I2409706
tp1714
a(I2457712
I2458096
tp1715
a(I2482780
I2482891
tp1716
aa(lp1717
(I825
I867
tp1718
a(I29227
I29754
tp1719
a(I84518
I84938
tp1720
a(I121359
I121614
tp1721
a(I178320
I179041
tp1722
a(I314085
I314352
tp1723
a(I357064
I357304
tp1724
a(I388063
I388272
tp1725
a(I411633
I411735
tp1726
a(I433160
I433569
tp1727
a(I521042
I521581
tp1728
a(I584902
I585070
tp1729
a(I615690
I616014
tp1730
a(I649678
I649889
tp1731
a(I687197
I687767
tp1732
a(I772678
I773078
tp1733
a(I827137
I827451
tp1734
a(I872919
I873406
tp1735
a(I922263
I922786
tp1736
a(I983361
I983683
tp1737
a(I1026723
I1027011
tp1738
a(I1070908
I1071112
tp1739
a(I1100752
I1101259
tp1740
a(I1171171
I1171530
tp1741
a(I1220294
I1220719
tp1742
a(I1277449
I1277898
tp1743
a(I1318612
I1318775
tp1744
a(I1352520
I1353125
tp1745
a(I1414227
I1414425
tp1746
a(I1436831
I1437079
tp1747
a(I1462887
I1463021
tp1748
a(I1485600
I1485955
tp1749
a(I1543490
I1543746
tp1750
a(I1571254
I1571319
tp1751
a(I1610501
I1611191
tp1752
a(I1724081
I1724591
tp1753
a(I1798596
I1798995
tp1754
a(I1840179
I1840436
tp1755
a(I1889022
I1889607
tp1756
a(I1953325
I1953454
tp1757
a(I1978930
I1979356
tp1758
a(I2023679
I2023861
tp1759
a(I2053163
I2053646
tp1760
a(I2126664
I2127651
tp1761
a(I2243007
I2243255
tp1762
a(I2287817
I2288282
tp1763
a(I2339658
I2339776
tp1764
a(I2356529
I2356847
tp1765
a(I2409706
I2410048
tp1766
a(I2458096
I2458464
tp1767
a(I2482891
I2483003
tp1768
aa(lp1769
(I867
I917
tp1770
a(I29754
I30272
tp1771
a(I84938
I85329
tp1772
a(I121614
I121859
tp1773
a(I179041
I179756
tp1774
a(I314352
I314619
tp1775
a(I357304
I357527
tp1776
a(I388272
I388491
tp1777
a(I411735
I411833
tp1778
a(I433569
I433987
tp1779
a(I521581
I522114
tp1780
a(I585070
I585238
tp1781
a(I616014
I616325
tp1782
a(I649889
I650085
tp1783
a(I687767
I688301
tp1784
a(I773078
I773473
tp1785
a(I827451
I827749
tp1786
a(I873406
I873861
tp1787
a(I922786
I923295
tp1788
a(I983683
I983989
tp1789
a(I1027011
I1027297
tp1790
a(I1071112
I1071321
tp1791
a(I1101259
I1101751
tp1792
a(I1171530
I1171866
tp1793
a(I1220719
I1221129
tp1794
a(I1277898
I1278342
tp1795
a(I1318775
I1318938
tp1796
a(I1353125
I1353691
tp1797
a(I1414425
I1414615
tp1798
a(I1437079
I1437334
tp1799
a(I1463021
I1463141
tp1800
a(I1485955
I1486283
tp1801
a(I1543746
I1544010
tp1802
a(I1571319
I1571383
tp1803
a(I1611191
I1611836
tp1804
a(I1724591
I1725102
tp1805
a(I1798995
I1799381
tp1806
a(I1840436
I1840691
tp1807
a(I1889607
I1890149
tp1808
a(I1953454
I1953586
tp1809
a(I1979356
I1979780
tp1810
a(I2023861
I2024042
tp1811
a(I2053646
I2054107
tp1812
a(I2127651
I2128656
tp1813
a(I2243255
I2243483
tp1814
a(I2288282
I2288732
tp1815
a(I2339776
I2339881
tp1816
a(I2356847
I2357168
tp1817
a(I2410048
I2410378
tp1818
a(I2458464
I2458817
tp1819
a(I2483003
I2483111
tp1820
aa(lp1821
(I917
I958
tp1822
a(I30272
I30771
tp1823
a(I85329
I85713
tp1824
a(I121859
I122104
tp1825
a(I179756
I180488
tp1826
a(I314619
I314885
tp1827
a(I357527
I357740
tp1828
a(I388491
I388719
tp1829
a(I411833
I411937
tp1830
a(I433987
I434383
tp1831
a(I522114
I522619
tp1832
a(I585238
I585409
tp1833
a(I616325
I616631
tp1834
a(I650085
I650273
tp1835
a(I688301
I688814
tp1836
a(I773473
I773843
tp1837
a(I827749
I828043
tp1838
a(I873861
I874314
tp1839
a(I923295
I923795
tp1840
a(I983989
I984296
tp1841
a(I1027297
I1027590
tp1842
a(I1071321
I1071523
tp1843
a(I1101751
I1102229
tp1844
a(I1171866
I1172189
tp1845
a(I1221129
I1221535
tp1846
a(I1278342
I1278763
tp1847
a(I1318938
I1319101
tp1848
a(I1353691
I1354242
tp1849
a(I1414615
I1414794
tp1850
a(I1437334
I1437582
tp1851
a(I1463141
I1463264
tp1852
a(I1486283
I1486613
tp1853
a(I1544010
I1544268
tp1854
a(I1571383
I1571455
tp1855
a(I1611836
I1612507
tp1856
a(I1725102
I1725596
tp1857
a(I1799381
I1799762
tp1858
a(I1840691
I1840942
tp1859
a(I1890149
I1890682
tp1860
a(I1953586
I1953721
tp1861
a(I1979780
I1980191
tp1862
a(I2024042
I2024225
tp1863
a(I2054107
I2054541
tp1864
a(I2128656
I2129635
tp1865
a(I2243483
I2243723
tp1866
a(I2288732
I2289163
tp1867
a(I2339881
I2340003
tp1868
a(I2357168
I2357482
tp1869
a(I2410378
I2410694
tp1870
a(I2458817
I2459165
tp1871
a(I2483111
I2483221
tp1872
aa(lp1873
(I958
I1018
tp1874
a(I30771
I31307
tp1875
a(I85713
I86123
tp1876
a(I122104
I122370
tp1877
a(I180488
I181265
tp1878
a(I314885
I315177
tp1879
a(I357740
I357976
tp1880
a(I388719
I388959
tp1881
a(I411937
I412040
tp1882
a(I434383
I434810
tp1883
a(I522619
I523165
tp1884
a(I585409
I585597
tp1885
a(I616631
I616969
tp1886
a(I650273
I650481
tp1887
a(I688814
I689377
tp1888
a(I773843
I774254
tp1889
a(I828043
I828365
tp1890
a(I874314
I874799
tp1891
a(I923795
I924327
tp1892
a(I984296
I984634
tp1893
a(I1027590
I1027907
tp1894
a(I1071523
I1071736
tp1895
a(I1102229
I1102738
tp1896
a(I1172189
I1172555
tp1897
a(I1221535
I1221974
tp1898
a(I1278763
I1279227
tp1899
a(I1319101
I1319284
tp1900
a(I1354242
I1354846
tp1901
a(I1414794
I1414983
tp1902
a(I1437582
I1437855
tp1903
a(I1463264
I1463407
tp1904
a(I1486613
I1486971
tp1905
a(I1544268
I1544537
tp1906
a(I1571455
I1571528
tp1907
a(I1612507
I1613212
tp1908
a(I1725596
I1726144
tp1909
a(I1799762
I1800156
tp1910
a(I1840942
I1841221
tp1911
a(I1890682
I1891252
tp1912
a(I1953721
I1953863
tp1913
a(I1980191
I1980634
tp1914
a(I2024225
I2024427
tp1915
a(I2054541
I2055022
tp1916
a(I2129635
I2130647
tp1917
a(I2243723
I2243972
tp1918
a(I2289163
I2289639
tp1919
a(I2340003
I2340127
tp1920
a(I2357482
I2357829
tp1921
a(I2410694
I2411037
tp1922
a(I2459165
I2459535
tp1923
a(I2483221
I2483338
tp1924
aa(lp1925
(I1018
I1081
tp1926
a(I31307
I31839
tp1927
a(I86123
I86531
tp1928
a(I122370
I122666
tp1929
a(I181265
I182108
tp1930
a(I315177
I315478
tp1931
a(I357976
I358228
tp1932
a(I388959
I389207
tp1933
a(I412040
I412155
tp1934
a(I434810
I435244
tp1935
a(I523165
I523729
tp1936
a(I585597
I585804
tp1937
a(I616969
I617341
tp1938
a(I650481
I650706
tp1939
a(I689377
I689992
tp1940
a(I774254
I774686
tp1941
a(I828365
I828690
tp1942
a(I874799
I875320
tp1943
a(I924327
I924895
tp1944
a(I984634
I984973
tp1945
a(I1027907
I1028246
tp1946
a(I1071736
I1071978
tp1947
a(I1102738
I1103315
tp1948
a(I1172555
I1172921
tp1949
a(I1221974
I1222439
tp1950
a(I1279227
I1279707
tp1951
a(I1319284
I1319481
tp1952
a(I1354846
I1355497
tp1953
a(I1414983
I1415191
tp1954
a(I1437855
I1438131
tp1955
a(I1463407
I1463561
tp1956
a(I1486971
I1487365
tp1957
a(I1544537
I1544831
tp1958
a(I1571528
I1571610
tp1959
a(I1613212
I1613974
tp1960
a(I1726144
I1726732
tp1961
a(I1800156
I1800556
tp1962
a(I1841221
I1841521
tp1963
a(I1891252
I1891877
tp1964
a(I1953863
I1954020
tp1965
a(I1980634
I1981100
tp1966
a(I2024427
I2024640
tp1967
a(I2055022
I2055531
tp1968
a(I2130647
I2131724
tp1969
a(I2243972
I2244241
tp1970
a(I2289639
I2290152
tp1971
a(I2340127
I2340263
tp1972
a(I2357829
I2358188
tp1973
a(I2411037
I2411384
tp1974
a(I2459535
I2459931
tp1975
a(I2483338
I2483461
tp1976
aa(lp1977
(I1081
I1164
tp1978
a(I31839
I32388
tp1979
a(I86531
I86943
tp1980
a(I122666
I122946
tp1981
a(I182108
I182950
tp1982
a(I315478
I315797
tp1983
a(I358228
I358465
tp1984
a(I389207
I389444
tp1985
a(I412155
I412264
tp1986
a(I435244
I435688
tp1987
a(I523729
I524282
tp1988
a(I585804
I586019
tp1989
a(I617341
I617680
tp1990
a(I650706
I650939
tp1991
a(I689992
I690593
tp1992
a(I774686
I775107
tp1993
a(I828690
I829023
tp1994
a(I875320
I875798
tp1995
a(I924895
I925445
tp1996
a(I984973
I985303
tp1997
a(I1028246
I1028581
tp1998
a(I1071978
I1072201
tp1999
a(I1103315
I1103873
tp2000
a(I1172921
I1173278
tp2001
a(I1222439
I1222873
tp2002
a(I1279707
I1280191
tp2003
a(I1319481
I1319675
tp2004
a(I1355497
I1356114
tp2005
a(I1415191
I1415403
tp2006
a(I1438131
I1438413
tp2007
a(I1463561
I1463713
tp2008
a(I1487365
I1487748
tp2009
a(I1544831
I1545126
tp2010
a(I1571610
I1571691
tp2011
a(I1613974
I1614730
tp2012
a(I1726732
I1727307
tp2013
a(I1800556
I1800951
tp2014
a(I1841521
I1841804
tp2015
a(I1891877
I1892476
tp2016
a(I1954020
I1954170
tp2017
a(I1981100
I1981545
tp2018
a(I2024640
I2024844
tp2019
a(I2055531
I2056011
tp2020
a(I2131724
I2132793
tp2021
a(I2244241
I2244509
tp2022
a(I2290152
I2290630
tp2023
a(I2340263
I2340397
tp2024
a(I2358188
I2358527
tp2025
a(I2411384
I2411726
tp2026
a(I2459931
I2460305
tp2027
a(I2483461
I2483592
tp2028
aa(lp2029
(I1164
I1245
tp2030
a(I32388
I32927
tp2031
a(I86943
I87346
tp2032
a(I122946
I123238
tp2033
a(I182950
I183800
tp2034
a(I315797
I316110
tp2035
a(I358465
I358706
tp2036
a(I389444
I389694
tp2037
a(I412264
I412384
tp2038
a(I435688
I436150
tp2039
a(I524282
I524845
tp2040
a(I586019
I586241
tp2041
a(I617680
I618020
tp2042
a(I650939
I651158
tp2043
a(I690593
I691228
tp2044
a(I775107
I775531
tp2045
a(I829023
I829371
tp2046
a(I875798
I876274
tp2047
a(I925445
I926021
tp2048
a(I985303
I985637
tp2049
a(I1028581
I1028904
tp2050
a(I1072201
I1072437
tp2051
a(I1103873
I1104452
tp2052
a(I1173278
I1173632
tp2053
a(I1222873
I1223321
tp2054
a(I1280191
I1280674
tp2055
a(I1319675
I1319866
tp2056
a(I1356114
I1356711
tp2057
a(I1415403
I1415608
tp2058
a(I1438413
I1438689
tp2059
a(I1463713
I1463853
tp2060
a(I1487748
I1488129
tp2061
a(I1545126
I1545419
tp2062
a(I1571691
I1571775
tp2063
a(I1614730
I1615525
tp2064
a(I1727307
I1727878
tp2065
a(I1800951
I1801335
tp2066
a(I1841804
I1842093
tp2067
a(I1892476
I1893065
tp2068
a(I1954170
I1954322
tp2069
a(I1981545
I1981975
tp2070
a(I2024844
I2025061
tp2071
a(I2056011
I2056484
tp2072
a(I2132793
I2133861
tp2073
a(I2244509
I2244776
tp2074
a(I2290630
I2291116
tp2075
a(I2340397
I2340530
tp2076
a(I2358527
I2358878
tp2077
a(I2411726
I2412078
tp2078
a(I2460305
I2460687
tp2079
a(I2483592
I2483725
tp2080
aa(lp2081
(I1245
I1334
tp2082
a(I32927
I33449
tp2083
a(I87346
I87756
tp2084
a(I123238
I123526
tp2085
a(I183800
I184663
tp2086
a(I316110
I316431
tp2087
a(I358706
I358938
tp2088
a(I389694
I389971
tp2089
a(I412384
I412506
tp2090
a(I436150
I436618
tp2091
a(I524845
I525411
tp2092
a(I586241
I586459
tp2093
a(I618020
I618384
tp2094
a(I651158
I651383
tp2095
a(I691228
I691861
tp2096
a(I775531
I775966
tp2097
a(I829371
I829687
tp2098
a(I876274
I876745
tp2099
a(I926021
I926583
tp2100
a(I985637
I985974
tp2101
a(I1028904
I1029231
tp2102
a(I1072437
I1072642
tp2103
a(I1104452
I1105024
tp2104
a(I1173632
I1173995
tp2105
a(I1223321
I1223765
tp2106
a(I1280674
I1281154
tp2107
a(I1319866
I1320068
tp2108
a(I1356711
I1357298
tp2109
a(I1415608
I1415819
tp2110
a(I1438689
I1438962
tp2111
a(I1463853
I1463993
tp2112
a(I1488129
I1488501
tp2113
a(I1545419
I1545729
tp2114
a(I1571775
I1571851
tp2115
a(I1615525
I1616308
tp2116
a(I1727878
I1728454
tp2117
a(I1801335
I1801734
tp2118
a(I1842093
I1842387
tp2119
a(I1893065
I1893656
tp2120
a(I1954322
I1954470
tp2121
a(I1981975
I1982431
tp2122
a(I2025061
I2025279
tp2123
a(I2056484
I2056958
tp2124
a(I2133861
I2134950
tp2125
a(I2244776
I2245040
tp2126
a(I2291116
I2291607
tp2127
a(I2340530
I2340660
tp2128
a(I2358878
I2359228
tp2129
a(I2412078
I2412429
tp2130
a(I2460687
I2461056
tp2131
a(I2483725
I2483860
tp2132
aa(lp2133
(I1334
I1431
tp2134
a(I33449
I33997
tp2135
a(I87756
I88160
tp2136
a(I123526
I123830
tp2137
a(I184663
I185516
tp2138
a(I316431
I316742
tp2139
a(I358938
I359176
tp2140
a(I389971
I390249
tp2141
a(I412506
I412636
tp2142
a(I436618
I437113
tp2143
a(I525411
I525974
tp2144
a(I586459
I586690
tp2145
a(I618384
I618750
tp2146
a(I651383
I651606
tp2147
a(I691861
I692491
tp2148
a(I775966
I776422
tp2149
a(I829687
I830016
tp2150
a(I876745
I877225
tp2151
a(I926583
I927162
tp2152
a(I985974
I986289
tp2153
a(I1029231
I1029574
tp2154
a(I1072642
I1072857
tp2155
a(I1105024
I1105606
tp2156
a(I1173995
I1174364
tp2157
a(I1223765
I1224227
tp2158
a(I1281154
I1281642
tp2159
a(I1320068
I1320271
tp2160
a(I1357298
I1357900
tp2161
a(I1415819
I1416030
tp2162
a(I1438962
I1439227
tp2163
a(I1463993
I1464131
tp2164
a(I1488501
I1488900
tp2165
a(I1545729
I1546048
tp2166
a(I1571851
I1571942
tp2167
a(I1616308
I1617116
tp2168
a(I1728454
I1729056
tp2169
a(I1801734
I1802127
tp2170
a(I1842387
I1842678
tp2171
a(I1893656
I1894265
tp2172
a(I1954470
I1954614
tp2173
a(I1982431
I1982873
tp2174
a(I2025279
I2025504
tp2175
a(I2056958
I2057452
tp2176
a(I2134950
I2136037
tp2177
a(I2245040
I2245335
tp2178
a(I2291607
I2292117
tp2179
a(I2340660
I2340792
tp2180
a(I2359228
I2359600
tp2181
a(I2412429
I2412784
tp2182
a(I2461056
I2461428
tp2183
a(I2483860
I2484009
tp2184
aa(lp2185
(I1431
I1551
tp2186
a(I33997
I34531
tp2187
a(I88160
I88562
tp2188
a(I123830
I124156
tp2189
a(I185516
I186425
tp2190
a(I316742
I317074
tp2191
a(I359176
I359425
tp2192
a(I390249
I390538
tp2193
a(I412636
I412765
tp2194
a(I437113
I437616
tp2195
a(I525974
I526544
tp2196
a(I586690
I586945
tp2197
a(I618750
I619100
tp2198
a(I651606
I651837
tp2199
a(I692491
I693168
tp2200
a(I776422
I776901
tp2201
a(I830016
I830359
tp2202
a(I877225
I877675
tp2203
a(I927162
I927737
tp2204
a(I986289
I986624
tp2205
a(I1029574
I1029933
tp2206
a(I1072857
I1073084
tp2207
a(I1105606
I1106207
tp2208
a(I1174364
I1174716
tp2209
a(I1224227
I1224684
tp2210
a(I1281642
I1282113
tp2211
a(I1320271
I1320484
tp2212
a(I1357900
I1358509
tp2213
a(I1416030
I1416238
tp2214
a(I1439227
I1439502
tp2215
a(I1464131
I1464283
tp2216
a(I1488900
I1489301
tp2217
a(I1546048
I1546383
tp2218
a(I1571942
I1572033
tp2219
a(I1617116
I1617943
tp2220
a(I1729056
I1729662
tp2221
a(I1802127
I1802518
tp2222
a(I1842678
I1842976
tp2223
a(I1894265
I1894886
tp2224
a(I1954614
I1954767
tp2225
a(I1982873
I1983332
tp2226
a(I2025504
I2025727
tp2227
a(I2057452
I2057951
tp2228
a(I2136037
I2137134
tp2229
a(I2245335
I2245625
tp2230
a(I2292117
I2292622
tp2231
a(I2340792
I2340918
tp2232
a(I2359600
I2359969
tp2233
a(I2412784
I2413128
tp2234
a(I2461428
I2461797
tp2235
a(I2484009
I2484153
tp2236
aa(lp2237
(I1551
I1680
tp2238
a(I34531
I35060
tp2239
a(I88562
I88952
tp2240
a(I124156
I124487
tp2241
a(I186425
I187394
tp2242
a(I317074
I317411
tp2243
a(I359425
I359694
tp2244
a(I390538
I390823
tp2245
a(I412765
I412900
tp2246
a(I437616
I438132
tp2247
a(I526544
I527121
tp2248
a(I586945
I587192
tp2249
a(I619100
I619444
tp2250
a(I651837
I652073
tp2251
a(I693168
I693860
tp2252
a(I776901
I777372
tp2253
a(I830359
I830716
tp2254
a(I877675
I878124
tp2255
a(I927737
I928319
tp2256
a(I986624
I986967
tp2257
a(I1029933
I1030304
tp2258
a(I1073084
I1073299
tp2259
a(I1106207
I1106834
tp2260
a(I1174716
I1175075
tp2261
a(I1224684
I1225158
tp2262
a(I1282113
I1282585
tp2263
a(I1320484
I1320692
tp2264
a(I1358509
I1359131
tp2265
a(I1416238
I1416453
tp2266
a(I1439502
I1439767
tp2267
a(I1464283
I1464426
tp2268
a(I1489301
I1489719
tp2269
a(I1546383
I1546701
tp2270
a(I1572033
I1572131
tp2271
a(I1617943
I1618805
tp2272
a(I1729662
I1730313
tp2273
a(I1802518
I1802905
tp2274
a(I1842976
I1843285
tp2275
a(I1894886
I1895526
tp2276
a(I1954767
I1954928
tp2277
a(I1983332
I1983811
tp2278
a(I2025727
I2025947
tp2279
a(I2057951
I2058435
tp2280
a(I2137134
I2138251
tp2281
a(I2245625
I2245916
tp2282
a(I2292622
I2293144
tp2283
a(I2340918
I2341040
tp2284
a(I2359969
I2360348
tp2285
a(I2413128
I2413500
tp2286
a(I2461797
I2462144
tp2287
a(I2484153
I2484307
tp2288
aa(lp2289
(I1680
I1818
tp2290
a(I35060
I35583
tp2291
a(I88952
I89355
tp2292
a(I124487
I124834
tp2293
a(I187394
I188352
tp2294
a(I317411
I317749
tp2295
a(I359694
I359978
tp2296
a(I390823
I391118
tp2297
a(I412900
I413038
tp2298
a(I438132
I438681
tp2299
a(I527121
I527693
tp2300
a(I587192
I587444
tp2301
a(I619444
I619809
tp2302
a(I652073
I652303
tp2303
a(I693860
I694565
tp2304
a(I777372
I777853
tp2305
a(I830716
I831074
tp2306
a(I878124
I878577
tp2307
a(I928319
I928920
tp2308
a(I986967
I987317
tp2309
a(I1030304
I1030683
tp2310
a(I1073299
I1073534
tp2311
a(I1106834
I1107486
tp2312
a(I1175075
I1175447
tp2313
a(I1225158
I1225650
tp2314
a(I1282585
I1283078
tp2315
a(I1320692
I1320916
tp2316
a(I1359131
I1359735
tp2317
a(I1416453
I1416671
tp2318
a(I1439767
I1440044
tp2319
a(I1464426
I1464573
tp2320
a(I1489719
I1490169
tp2321
a(I1546701
I1547021
tp2322
a(I1572131
I1572243
tp2323
a(I1618805
I1619683
tp2324
a(I1730313
I1730982
tp2325
a(I1802905
I1803308
tp2326
a(I1843285
I1843594
tp2327
a(I1895526
I1896179
tp2328
a(I1954928
I1955074
tp2329
a(I1983811
I1984297
tp2330
a(I2025947
I2026181
tp2331
a(I2058435
I2058938
tp2332
a(I2138251
I2139347
tp2333
a(I2245916
I2246210
tp2334
a(I2293144
I2293677
tp2335
a(I2341040
I2341175
tp2336
a(I2360348
I2360746
tp2337
a(I2413500
I2413890
tp2338
a(I2462144
I2462497
tp2339
a(I2484307
I2484460
tp2340
aa(lp2341
(I1818
I1958
tp2342
a(I35583
I36119
tp2343
a(I89355
I89739
tp2344
a(I124834
I125187
tp2345
a(I188352
I189365
tp2346
a(I317749
I318101
tp2347
a(I359978
I360268
tp2348
a(I391118
I391412
tp2349
a(I413038
I413185
tp2350
a(I438681
I439232
tp2351
a(I527693
I528294
tp2352
a(I587444
I587697
tp2353
a(I619809
I620164
tp2354
a(I652303
I652553
tp2355
a(I694565
I695286
tp2356
a(I777853
I778352
tp2357
a(I831074
I831445
tp2358
a(I878577
I879038
tp2359
a(I928920
I929517
tp2360
a(I987317
I987655
tp2361
a(I1030683
I1031075
tp2362
a(I1073534
I1073739
tp2363
a(I1107486
I1108160
tp2364
a(I1175447
I1175822
tp2365
a(I1225650
I1226147
tp2366
a(I1283078
I1283557
tp2367
a(I1320916
I1321138
tp2368
a(I1359735
I1360346
tp2369
a(I1416671
I1416903
tp2370
a(I1440044
I1440325
tp2371
a(I1464573
I1464717
tp2372
a(I1490169
I1490625
tp2373
a(I1547021
I1547363
tp2374
a(I1572243
I1572370
tp2375
a(I1619683
I1620626
tp2376
a(I1730982
I1731662
tp2377
a(I1803308
I1803702
tp2378
a(I1843594
I1843907
tp2379
a(I1896179
I1896856
tp2380
a(I1955074
I1955233
tp2381
a(I1984297
I1984758
tp2382
a(I2026181
I2026418
tp2383
a(I2058938
I2059426
tp2384
a(I2139347
I2140454
tp2385
a(I2246210
I2246512
tp2386
a(I2293677
I2294213
tp2387
a(I2341175
I2341308
tp2388
a(I2360746
I2361149
tp2389
a(I2413890
I2414277
tp2390
a(I2462497
I2462848
tp2391
a(I2484460
I2484618
tp2392
aa(lp2393
(I1958
I2100
tp2394
a(I36119
I36662
tp2395
a(I89739
I90139
tp2396
a(I125187
I125543
tp2397
a(I189365
I190391
tp2398
a(I318101
I318476
tp2399
a(I360268
I360573
tp2400
a(I391412
I391716
tp2401
a(I413185
I413340
tp2402
a(I439232
I439806
tp2403
a(I528294
I528896
tp2404
a(I587697
I587970
tp2405
a(I620164
I620522
tp2406
a(I652553
I652800
tp2407
a(I695286
I696054
tp2408
a(I778352
I778863
tp2409
a(I831445
I831832
tp2410
a(I879038
I879498
tp2411
a(I929517
I930107
tp2412
a(I987655
I988016
tp2413
a(I1031075
I1031470
tp2414
a(I1073739
I1073965
tp2415
a(I1108160
I1108856
tp2416
a(I1175822
I1176200
tp2417
a(I1226147
I1226652
tp2418
a(I1283557
I1284045
tp2419
a(I1321138
I1321361
tp2420
a(I1360346
I1360955
tp2421
a(I1416903
I1417113
tp2422
a(I1440325
I1440611
tp2423
a(I1464717
I1464869
tp2424
a(I1490625
I1491106
tp2425
a(I1547363
I1547701
tp2426
a(I1572370
I1572507
tp2427
a(I1620626
I1621561
tp2428
a(I1731662
I1732379
tp2429
a(I1803702
I1804101
tp2430
a(I1843907
I1844226
tp2431
a(I1896856
I1897518
tp2432
a(I1955233
I1955389
tp2433
a(I1984758
I1985222
tp2434
a(I2026418
I2026653
tp2435
a(I2059426
I2059910
tp2436
a(I2140454
I2141567
tp2437
a(I2246512
I2246831
tp2438
a(I2294213
I2294757
tp2439
a(I2341308
I2341440
tp2440
a(I2361149
I2361568
tp2441
a(I2414277
I2414677
tp2442
a(I2462848
I2463208
tp2443
a(I2484618
I2484779
tp2444
aa(lp2445
(I2100
I2258
tp2446
a(I36662
I37212
tp2447
a(I90139
I90538
tp2448
a(I125543
I125934
tp2449
a(I190391
I191448
tp2450
a(I318476
I318868
tp2451
a(I360573
I360904
tp2452
a(I391716
I392008
tp2453
a(I413340
I413500
tp2454
a(I439806
I440401
tp2455
a(I528896
I529479
tp2456
a(I587970
I588241
tp2457
a(I620522
I620892
tp2458
a(I652800
I653045
tp2459
a(I696054
I696834
tp2460
a(I778863
I779392
tp2461
a(I831832
I832213
tp2462
a(I879498
I879964
tp2463
a(I930107
I930733
tp2464
a(I988016
I988390
tp2465
a(I1031470
I1031881
tp2466
a(I1073965
I1074200
tp2467
a(I1108856
I1109540
tp2468
a(I1176200
I1176602
tp2469
a(I1226652
I1227164
tp2470
a(I1284045
I1284517
tp2471
a(I1321361
I1321599
tp2472
a(I1360955
I1361573
tp2473
a(I1417113
I1417333
tp2474
a(I1440611
I1440895
tp2475
a(I1464869
I1465032
tp2476
a(I1491106
I1491611
tp2477
a(I1547701
I1548049
tp2478
a(I1572507
I1572644
tp2479
a(I1621561
I1622523
tp2480
a(I1732379
I1733102
tp2481
a(I1804101
I1804526
tp2482
a(I1844226
I1844535
tp2483
a(I1897518
I1898213
tp2484
a(I1955389
I1955553
tp2485
a(I1985222
I1985685
tp2486
a(I2026653
I2026882
tp2487
a(I2059910
I2060419
tp2488
a(I2141567
I2142693
tp2489
a(I2246831
I2247162
tp2490
a(I2294757
I2295301
tp2491
a(I2341440
I2341580
tp2492
a(I2361568
I2361984
tp2493
a(I2414677
I2415082
tp2494
a(I2463208
I2463552
tp2495
a(I2484779
I2484938
tp2496
aa(lp2497
(I2258
I2421
tp2498
a(I37212
I37742
tp2499
a(I90538
I90936
tp2500
a(I125934
I126324
tp2501
a(I191448
I192519
tp2502
a(I318868
I319247
tp2503
a(I360904
I361248
tp2504
a(I392008
I392311
tp2505
a(I413500
I413659
tp2506
a(I440401
I441014
tp2507
a(I529479
I530076
tp2508
a(I588241
I588520
tp2509
a(I620892
I621261
tp2510
a(I653045
I653291
tp2511
a(I696834
I697617
tp2512
a(I779392
I779929
tp2513
a(I832213
I832594
tp2514
a(I879964
I880413
tp2515
a(I930733
I931342
tp2516
a(I988390
I988780
tp2517
a(I1031881
I1032297
tp2518
a(I1074200
I1074448
tp2519
a(I1109540
I1110213
tp2520
a(I1176602
I1177005
tp2521
a(I1227164
I1227677
tp2522
a(I1284517
I1284998
tp2523
a(I1321599
I1321848
tp2524
a(I1361573
I1362174
tp2525
a(I1417333
I1417562
tp2526
a(I1440895
I1441198
tp2527
a(I1465032
I1465196
tp2528
a(I1491611
I1492121
tp2529
a(I1548049
I1548407
tp2530
a(I1572644
I1572785
tp2531
a(I1622523
I1623532
tp2532
a(I1733102
I1733820
tp2533
a(I1804526
I1804937
tp2534
a(I1844535
I1844860
tp2535
a(I1898213
I1898896
tp2536
a(I1955553
I1955714
tp2537
a(I1985685
I1986159
tp2538
a(I2026882
I2027103
tp2539
a(I2060419
I2060915
tp2540
a(I2142693
I2143792
tp2541
a(I2247162
I2247480
tp2542
a(I2295301
I2295842
tp2543
a(I2341580
I2341721
tp2544
a(I2361984
I2362400
tp2545
a(I2415082
I2415500
tp2546
a(I2463552
I2463907
tp2547
a(I2484938
I2485094
tp2548
aa(lp2549
(I2421
I2567
tp2550
a(I37742
I38295
tp2551
a(I90936
I91337
tp2552
a(I126324
I126730
tp2553
a(I192519
I193618
tp2554
a(I319247
I319648
tp2555
a(I361248
I361584
tp2556
a(I392311
I392632
tp2557
a(I413659
I413828
tp2558
a(I441014
I441646
tp2559
a(I530076
I530682
tp2560
a(I588520
I588798
tp2561
a(I621261
I621645
tp2562
a(I653291
I653542
tp2563
a(I697617
I698408
tp2564
a(I779929
I780451
tp2565
a(I832594
I832985
tp2566
a(I880413
I880871
tp2567
a(I931342
I931974
tp2568
a(I988780
I989177
tp2569
a(I1032297
I1032726
tp2570
a(I1074448
I1074687
tp2571
a(I1110213
I1110879
tp2572
a(I1177005
I1177402
tp2573
a(I1227677
I1228193
tp2574
a(I1284998
I1285472
tp2575
a(I1321848
I1322092
tp2576
a(I1362174
I1362773
tp2577
a(I1417562
I1417793
tp2578
a(I1441198
I1441496
tp2579
a(I1465196
I1465359
tp2580
a(I1492121
I1492656
tp2581
a(I1548407
I1548781
tp2582
a(I1572785
I1572926
tp2583
a(I1623532
I1624552
tp2584
a(I1733820
I1734539
tp2585
a(I1804937
I1805368
tp2586
a(I1844860
I1845192
tp2587
a(I1898896
I1899594
tp2588
a(I1955714
I1955876
tp2589
a(I1986159
I1986629
tp2590
a(I2027103
I2027343
tp2591
a(I2060915
I2061402
tp2592
a(I2143792
I2144907
tp2593
a(I2247480
I2247803
tp2594
a(I2295842
I2296388
tp2595
a(I2341721
I2341867
tp2596
a(I2362400
I2362850
tp2597
a(I2415500
I2415902
tp2598
a(I2463907
I2464248
tp2599
a(I2485094
I2485255
tp2600
aa(lp2601
(I2567
I2731
tp2602
a(I38295
I38852
tp2603
a(I91337
I91734
tp2604
a(I126730
I127144
tp2605
a(I193618
I194743
tp2606
a(I319648
I320040
tp2607
a(I361584
I361932
tp2608
a(I392632
I392957
tp2609
a(I413828
I413997
tp2610
a(I441646
I442288
tp2611
a(I530682
I531274
tp2612
a(I588798
I589069
tp2613
a(I621645
I622026
tp2614
a(I653542
I653805
tp2615
a(I698408
I699223
tp2616
a(I780451
I780968
tp2617
a(I832985
I833380
tp2618
a(I880871
I881322
tp2619
a(I931974
I932631
tp2620
a(I989177
I989564
tp2621
a(I1032726
I1033150
tp2622
a(I1074687
I1074935
tp2623
a(I1110879
I1111543
tp2624
a(I1177402
I1177804
tp2625
a(I1228193
I1228718
tp2626
a(I1285472
I1285955
tp2627
a(I1322092
I1322330
tp2628
a(I1362773
I1363370
tp2629
a(I1417793
I1418026
tp2630
a(I1441496
I1441798
tp2631
a(I1465359
I1465522
tp2632
a(I1492656
I1493205
tp2633
a(I1548781
I1549165
tp2634
a(I1572926
I1573081
tp2635
a(I1624552
I1625571
tp2636
a(I1734539
I1735261
tp2637
a(I1805368
I1805799
tp2638
a(I1845192
I1845524
tp2639
a(I1899594
I1900284
tp2640
a(I1955876
I1956051
tp2641
a(I1986629
I1987101
tp2642
a(I2027343
I2027587
tp2643
a(I2061402
I2061888
tp2644
a(I2144907
I2146028
tp2645
a(I2247803
I2248124
tp2646
a(I2296388
I2296912
tp2647
a(I2341867
I2342008
tp2648
a(I2362850
I2363287
tp2649
a(I2415902
I2416332
tp2650
a(I2464248
I2464585
tp2651
a(I2485255
I2485419
tp2652
aa(lp2653
(I2731
I2894
tp2654
a(I38852
I39390
tp2655
a(I91734
I92133
tp2656
a(I127144
I127567
tp2657
a(I194743
I195915
tp2658
a(I320040
I320437
tp2659
a(I361932
I362274
tp2660
a(I392957
I393284
tp2661
a(I413997
I414176
tp2662
a(I442288
I442938
tp2663
a(I531274
I531893
tp2664
a(I589069
I589343
tp2665
a(I622026
I622389
tp2666
a(I653805
I654066
tp2667
a(I699223
I700044
tp2668
a(I780968
I781499
tp2669
a(I833380
I833757
tp2670
a(I881322
I881783
tp2671
a(I932631
I933263
tp2672
a(I989564
I989956
tp2673
a(I1033150
I1033572
tp2674
a(I1074935
I1075169
tp2675
a(I1111543
I1112217
tp2676
a(I1177804
I1178194
tp2677
a(I1228718
I1229222
tp2678
a(I1285955
I1286422
tp2679
a(I1322330
I1322576
tp2680
a(I1363370
I1363976
tp2681
a(I1418026
I1418254
tp2682
a(I1441798
I1442108
tp2683
a(I1465522
I1465689
tp2684
a(I1493205
I1493741
tp2685
a(I1549165
I1549532
tp2686
a(I1573081
I1573245
tp2687
a(I1625571
I1626614
tp2688
a(I1735261
I1735983
tp2689
a(I1805799
I1806211
tp2690
a(I1845524
I1845852
tp2691
a(I1900284
I1900954
tp2692
a(I1956051
I1956232
tp2693
a(I1987101
I1987565
tp2694
a(I2027587
I2027820
tp2695
a(I2061888
I2062381
tp2696
a(I2146028
I2147155
tp2697
a(I2248124
I2248450
tp2698
a(I2296912
I2297448
tp2699
a(I2342008
I2342150
tp2700
a(I2363287
I2363720
tp2701
a(I2416332
I2416756
tp2702
a(I2464585
I2464910
tp2703
a(I2485419
I2485583
tp2704
aa(lp2705
(I2894
I3056
tp2706
a(I39390
I39930
tp2707
a(I92133
I92524
tp2708
a(I127567
I127970
tp2709
a(I195915
I197078
tp2710
a(I320437
I320852
tp2711
a(I362274
I362620
tp2712
a(I393284
I393607
tp2713
a(I414176
I414341
tp2714
a(I442938
I443611
tp2715
a(I531893
I532479
tp2716
a(I589343
I589637
tp2717
a(I622389
I622755
tp2718
a(I654066
I654323
tp2719
a(I700044
I700852
tp2720
a(I781499
I782008
tp2721
a(I833757
I834141
tp2722
a(I881783
I882232
tp2723
a(I933263
I933906
tp2724
a(I989956
I990355
tp2725
a(I1033572
I1033978
tp2726
a(I1075169
I1075415
tp2727
a(I1112217
I1112854
tp2728
a(I1178194
I1178595
tp2729
a(I1229222
I1229737
tp2730
a(I1286422
I1286884
tp2731
a(I1322576
I1322816
tp2732
a(I1363976
I1364594
tp2733
a(I1418254
I1418475
tp2734
a(I1442108
I1442434
tp2735
a(I1465689
I1465856
tp2736
a(I1493741
I1494284
tp2737
a(I1549532
I1549920
tp2738
a(I1573245
I1573412
tp2739
a(I1626614
I1627643
tp2740
a(I1735983
I1736680
tp2741
a(I1806211
I1806633
tp2742
a(I1845852
I1846188
tp2743
a(I1900954
I1901628
tp2744
a(I1956232
I1956406
tp2745
a(I1987565
I1988038
tp2746
a(I2027820
I2028056
tp2747
a(I2062381
I2062878
tp2748
a(I2147155
I2148267
tp2749
a(I2248450
I2248777
tp2750
a(I2297448
I2297997
tp2751
a(I2342150
I2342282
tp2752
a(I2363720
I2364146
tp2753
a(I2416756
I2417178
tp2754
a(I2464910
I2465228
tp2755
a(I2485583
I2485759
tp2756
aa(lp2757
(I3056
I3220
tp2758
a(I39930
I40461
tp2759
a(I92524
I92931
tp2760
a(I127970
I128393
tp2761
a(I197078
I198256
tp2762
a(I320852
I321262
tp2763
a(I362620
I362973
tp2764
a(I393607
I393940
tp2765
a(I414341
I414514
tp2766
a(I443611
I444285
tp2767
a(I532479
I533089
tp2768
a(I589637
I589922
tp2769
a(I622755
I623125
tp2770
a(I654323
I654563
tp2771
a(I700852
I701653
tp2772
a(I782008
I782528
tp2773
a(I834141
I834527
tp2774
a(I882232
I882679
tp2775
a(I933906
I934550
tp2776
a(I990355
I990757
tp2777
a(I1033978
I1034406
tp2778
a(I1075415
I1075639
tp2779
a(I1112854
I1113499
tp2780
a(I1178595
I1178992
tp2781
a(I1229737
I1230247
tp2782
a(I1286884
I1287358
tp2783
a(I1322816
I1323056
tp2784
a(I1364594
I1365207
tp2785
a(I1418475
I1418688
tp2786
a(I1442434
I1442733
tp2787
a(I1465856
I1466022
tp2788
a(I1494284
I1494850
tp2789
a(I1549920
I1550279
tp2790
a(I1573412
I1573577
tp2791
a(I1627643
I1628700
tp2792
a(I1736680
I1737361
tp2793
a(I1806633
I1807069
tp2794
a(I1846188
I1846521
tp2795
a(I1901628
I1902303
tp2796
a(I1956406
I1956574
tp2797
a(I1988038
I1988509
tp2798
a(I2028056
I2028285
tp2799
a(I2062878
I2063372
tp2800
a(I2148267
I2149367
tp2801
a(I2248777
I2249106
tp2802
a(I2297997
I2298533
tp2803
a(I2342282
I2342414
tp2804
a(I2364146
I2364571
tp2805
a(I2417178
I2417596
tp2806
a(I2465228
I2465562
tp2807
a(I2485759
I2485913
tp2808
aa(lp2809
(I3220
I3378
tp2810
a(I40461
I40973
tp2811
a(I92931
I93336
tp2812
a(I128393
I128832
tp2813
a(I198256
I199449
tp2814
a(I321262
I321664
tp2815
a(I362973
I363348
tp2816
a(I393940
I394249
tp2817
a(I414514
I414682
tp2818
a(I444285
I444949
tp2819
a(I533089
I533717
tp2820
a(I589922
I590201
tp2821
a(I623125
I623492
tp2822
a(I654563
I654803
tp2823
a(I701653
I702466
tp2824
a(I782528
I783049
tp2825
a(I834527
I834914
tp2826
a(I882679
I883111
tp2827
a(I934550
I935190
tp2828
a(I990757
I991159
tp2829
a(I1034406
I1034834
tp2830
a(I1075639
I1075869
tp2831
a(I1113499
I1114138
tp2832
a(I1178992
I1179384
tp2833
a(I1230247
I1230752
tp2834
a(I1287358
I1287818
tp2835
a(I1323056
I1323287
tp2836
a(I1365207
I1365806
tp2837
a(I1418688
I1418892
tp2838
a(I1442733
I1443025
tp2839
a(I1466022
I1466192
tp2840
a(I1494850
I1495421
tp2841
a(I1550279
I1550642
tp2842
a(I1573577
I1573758
tp2843
a(I1628700
I1629787
tp2844
a(I1737361
I1738046
tp2845
a(I1807069
I1807464
tp2846
a(I1846521
I1846848
tp2847
a(I1902303
I1902998
tp2848
a(I1956574
I1956745
tp2849
a(I1988509
I1988984
tp2850
a(I2028285
I2028504
tp2851
a(I2063372
I2063863
tp2852
a(I2149367
I2150463
tp2853
a(I2249106
I2249410
tp2854
a(I2298533
I2299068
tp2855
a(I2342414
I2342553
tp2856
a(I2364571
I2364993
tp2857
a(I2417596
I2418006
tp2858
a(I2465562
I2465886
tp2859
a(I2485913
I2486068
tp2860
aa(lp2861
(I3378
I3536
tp2862
a(I40973
I41488
tp2863
a(I93336
I93721
tp2864
a(I128832
I129242
tp2865
a(I199449
I200652
tp2866
a(I321664
I322044
tp2867
a(I363348
I363694
tp2868
a(I394249
I394563
tp2869
a(I414682
I414842
tp2870
a(I444949
I445601
tp2871
a(I533717
I534315
tp2872
a(I590201
I590460
tp2873
a(I623492
I623846
tp2874
a(I654803
I655029
tp2875
a(I702466
I703265
tp2876
a(I783049
I783557
tp2877
a(I834914
I835264
tp2878
a(I883111
I883526
tp2879
a(I935190
I935829
tp2880
a(I991159
I991556
tp2881
a(I1034834
I1035258
tp2882
a(I1075869
I1076095
tp2883
a(I1114138
I1114774
tp2884
a(I1179384
I1179769
tp2885
a(I1230752
I1231244
tp2886
a(I1287818
I1288269
tp2887
a(I1323287
I1323508
tp2888
a(I1365806
I1366383
tp2889
a(I1418892
I1419091
tp2890
a(I1443025
I1443305
tp2891
a(I1466192
I1466353
tp2892
a(I1495421
I1495973
tp2893
a(I1550642
I1551002
tp2894
a(I1573758
I1573928
tp2895
a(I1629787
I1630832
tp2896
a(I1738046
I1738712
tp2897
a(I1807464
I1807869
tp2898
a(I1846848
I1847185
tp2899
a(I1902998
I1903664
tp2900
a(I1956745
I1956915
tp2901
a(I1988984
I1989429
tp2902
a(I2028504
I2028717
tp2903
a(I2063863
I2064331
tp2904
a(I2150463
I2151512
tp2905
a(I2249410
I2249714
tp2906
a(I2299068
I2299574
tp2907
a(I2342553
I2342680
tp2908
a(I2364993
I2365400
tp2909
a(I2418006
I2418417
tp2910
a(I2465886
I2466188
tp2911
a(I2486068
I2486212
tp2912
aa(lp2913
(I3536
I3687
tp2914
a(I41488
I41972
tp2915
a(I93721
I94095
tp2916
a(I129242
I129634
tp2917
a(I200652
I201792
tp2918
a(I322044
I322416
tp2919
a(I363694
I364045
tp2920
a(I394563
I394857
tp2921
a(I414842
I414987
tp2922
a(I445601
I446245
tp2923
a(I534315
I534917
tp2924
a(I590460
I590717
tp2925
a(I623846
I624201
tp2926
a(I655029
I655257
tp2927
a(I703265
I704074
tp2928
a(I783557
I784060
tp2929
a(I835264
I835622
tp2930
a(I883526
I883932
tp2931
a(I935829
I936455
tp2932
a(I991556
I991945
tp2933
a(I1035258
I1035655
tp2934
a(I1076095
I1076315
tp2935
a(I1114774
I1115427
tp2936
a(I1179769
I1180137
tp2937
a(I1231244
I1231723
tp2938
a(I1288269
I1288723
tp2939
a(I1323508
I1323712
tp2940
a(I1366383
I1366954
tp2941
a(I1419091
I1419285
tp2942
a(I1443305
I1443572
tp2943
a(I1466353
I1466511
tp2944
a(I1495973
I1496543
tp2945
a(I1551002
I1551329
tp2946
a(I1573928
I1574087
tp2947
a(I1630832
I1631879
tp2948
a(I1738712
I1739386
tp2949
a(I1807869
I1808260
tp2950
a(I1847185
I1847517
tp2951
a(I1903664
I1904322
tp2952
a(I1956915
I1957070
tp2953
a(I1989429
I1989862
tp2954
a(I2028717
I2028915
tp2955
a(I2064331
I2064794
tp2956
a(I2151512
I2152570
tp2957
a(I2249714
I2250009
tp2958
a(I2299574
I2300088
tp2959
a(I2342680
I2342812
tp2960
a(I2365400
I2365794
tp2961
a(I2418417
I2418819
tp2962
a(I2466188
I2466467
tp2963
a(I2486212
I2486341
tp2964
aa(lp2965
(I3687
I3834
tp2966
a(I41972
I42476
tp2967
a(I94095
I94454
tp2968
a(I129634
I130032
tp2969
a(I201792
I202975
tp2970
a(I322416
I322791
tp2971
a(I364045
I364387
tp2972
a(I394857
I395164
tp2973
a(I414987
I415131
tp2974
a(I446245
I446878
tp2975
a(I534917
I535493
tp2976
a(I590717
I590970
tp2977
a(I624201
I624544
tp2978
a(I655257
I655486
tp2979
a(I704074
I704879
tp2980
a(I784060
I784578
tp2981
a(I835622
I835971
tp2982
a(I883932
I884334
tp2983
a(I936455
I937075
tp2984
a(I991945
I992329
tp2985
a(I1035655
I1036057
tp2986
a(I1076315
I1076531
tp2987
a(I1115427
I1116074
tp2988
a(I1180137
I1180506
tp2989
a(I1231723
I1232207
tp2990
a(I1288723
I1289156
tp2991
a(I1323712
I1323915
tp2992
a(I1366954
I1367506
tp2993
a(I1419285
I1419462
tp2994
a(I1443572
I1443828
tp2995
a(I1466511
I1466676
tp2996
a(I1496543
I1497104
tp2997
a(I1551329
I1551642
tp2998
a(I1574087
I1574252
tp2999
a(I1631879
I1632932
tp3000
a(I1739386
I1740053
tp3001
a(I1808260
I1808644
tp3002
a(I1847517
I1847845
tp3003
a(I1904322
I1904983
tp3004
a(I1957070
I1957235
tp3005
a(I1989862
I1990284
tp3006
a(I2028915
I2029097
tp3007
a(I2064794
I2065260
tp3008
a(I2152570
I2153600
tp3009
a(I2250009
I2250301
tp3010
a(I2300088
I2300597
tp3011
a(I2342812
I2342938
tp3012
a(I2365794
I2366222
tp3013
a(I2418819
I2419221
tp3014
a(I2466467
I2466741
tp3015
a(I2486341
I2486463
tp3016
aa(lp3017
(I3834
I3975
tp3018
a(I42476
I42953
tp3019
a(I94454
I94807
tp3020
a(I130032
I130443
tp3021
a(I202975
I204204
tp3022
a(I322791
I323176
tp3023
a(I364387
I364737
tp3024
a(I395164
I395460
tp3025
a(I415131
I415286
tp3026
a(I446878
I447524
tp3027
a(I535493
I536073
tp3028
a(I590970
I591223
tp3029
a(I624544
I624899
tp3030
a(I655486
I655701
tp3031
a(I704879
I705685
tp3032
a(I784578
I785070
tp3033
a(I835971
I836318
tp3034
a(I884334
I884742
tp3035
a(I937075
I937687
tp3036
a(I992329
I992724
tp3037
a(I1036057
I1036467
tp3038
a(I1076531
I1076737
tp3039
a(I1116074
I1116730
tp3040
a(I1180506
I1180883
tp3041
a(I1232207
I1232686
tp3042
a(I1289156
I1289586
tp3043
a(I1323915
I1324115
tp3044
a(I1367506
I1368091
tp3045
a(I1419462
I1419649
tp3046
a(I1443828
I1444090
tp3047
a(I1466676
I1466827
tp3048
a(I1497104
I1497682
tp3049
a(I1551642
I1551968
tp3050
a(I1574252
I1574419
tp3051
a(I1632932
I1633991
tp3052
a(I1740053
I1740724
tp3053
a(I1808644
I1809040
tp3054
a(I1847845
I1848171
tp3055
a(I1904983
I1905650
tp3056
a(I1957235
I1957392
tp3057
a(I1990284
I1990710
tp3058
a(I2029097
I2029280
tp3059
a(I2065260
I2065745
tp3060
a(I2153600
I2154675
tp3061
a(I2250301
I2250585
tp3062
a(I2300597
I2301088
tp3063
a(I2342938
I2343060
tp3064
a(I2366222
I2366652
tp3065
a(I2419221
I2419634
tp3066
a(I2466741
I2467023
tp3067
a(I2486463
I2486578
tp3068
aa(lp3069
(I3975
I4131
tp3070
a(I42953
I43443
tp3071
a(I94807
I95173
tp3072
a(I130443
I130855
tp3073
a(I204204
I205502
tp3074
a(I323176
I323573
tp3075
a(I364737
I365100
tp3076
a(I395460
I395780
tp3077
a(I415286
I415446
tp3078
a(I447524
I448183
tp3079
a(I536073
I536680
tp3080
a(I591223
I591499
tp3081
a(I624899
I625245
tp3082
a(I655701
I655924
tp3083
a(I705685
I706542
tp3084
a(I785070
I785594
tp3085
a(I836318
I836678
tp3086
a(I884742
I885163
tp3087
a(I937687
I938304
tp3088
a(I992724
I993146
tp3089
a(I1036467
I1036881
tp3090
a(I1076737
I1076940
tp3091
a(I1116730
I1117427
tp3092
a(I1180883
I1181260
tp3093
a(I1232686
I1233185
tp3094
a(I1289586
I1290030
tp3095
a(I1324115
I1324317
tp3096
a(I1368091
I1368664
tp3097
a(I1419649
I1419833
tp3098
a(I1444090
I1444353
tp3099
a(I1466827
I1466983
tp3100
a(I1497682
I1498267
tp3101
a(I1551968
I1552302
tp3102
a(I1574419
I1574579
tp3103
a(I1633991
I1635123
tp3104
a(I1740724
I1741445
tp3105
a(I1809040
I1809441
tp3106
a(I1848171
I1848502
tp3107
a(I1905650
I1906324
tp3108
a(I1957392
I1957557
tp3109
a(I1990710
I1991143
tp3110
a(I2029280
I2029460
tp3111
a(I2065745
I2066220
tp3112
a(I2154675
I2155803
tp3113
a(I2250585
I2250875
tp3114
a(I2301088
I2301604
tp3115
a(I2343060
I2343192
tp3116
a(I2366652
I2367090
tp3117
a(I2419634
I2420054
tp3118
a(I2467023
I2467306
tp3119
a(I2486578
I2486711
tp3120
aa(lp3121
(I4131
I4289
tp3122
a(I43443
I43951
tp3123
a(I95173
I95542
tp3124
a(I130855
I131296
tp3125
a(I205502
I206858
tp3126
a(I323573
I323989
tp3127
a(I365100
I365470
tp3128
a(I395780
I396099
tp3129
a(I415446
I415605
tp3130
a(I448183
I448898
tp3131
a(I536680
I537321
tp3132
a(I591499
I591774
tp3133
a(I625245
I625602
tp3134
a(I655924
I656158
tp3135
a(I706542
I707478
tp3136
a(I785594
I786152
tp3137
a(I836678
I837040
tp3138
a(I885163
I885582
tp3139
a(I938304
I938939
tp3140
a(I993146
I993599
tp3141
a(I1036881
I1037297
tp3142
a(I1076940
I1077146
tp3143
a(I1117427
I1118172
tp3144
a(I1181260
I1181655
tp3145
a(I1233185
I1233699
tp3146
a(I1290030
I1290483
tp3147
a(I1324317
I1324531
tp3148
a(I1368664
I1369257
tp3149
a(I1419833
I1420005
tp3150
a(I1444353
I1444642
tp3151
a(I1466983
I1467143
tp3152
a(I1498267
I1498905
tp3153
a(I1552302
I1552646
tp3154
a(I1574579
I1574758
tp3155
a(I1635123
I1636349
tp3156
a(I1741445
I1742216
tp3157
a(I1809441
I1809845
tp3158
a(I1848502
I1848850
tp3159
a(I1906324
I1907047
tp3160
a(I1957557
I1957732
tp3161
a(I1991143
I1991595
tp3162
a(I2029460
I2029661
tp3163
a(I2066220
I2066714
tp3164
a(I2155803
I2156951
tp3165
a(I2250875
I2251195
tp3166
a(I2301604
I2302135
tp3167
a(I2343192
I2343328
tp3168
a(I2367090
I2367568
tp3169
a(I2420054
I2420500
tp3170
a(I2467306
I2467608
tp3171
a(I2486711
I2486855
tp3172
aa(lp3173
(I4289
I4455
tp3174
a(I43951
I44458
tp3175
a(I95542
I95907
tp3176
a(I131296
I131750
tp3177
a(I206858
I208228
tp3178
a(I323989
I324422
tp3179
a(I365470
I365839
tp3180
a(I396099
I396417
tp3181
a(I415605
I415765
tp3182
a(I448898
I449631
tp3183
a(I537321
I537947
tp3184
a(I591774
I592037
tp3185
a(I625602
I625954
tp3186
a(I656158
I656378
tp3187
a(I707478
I708420
tp3188
a(I786152
I786719
tp3189
a(I837040
I837395
tp3190
a(I885582
I886011
tp3191
a(I938939
I939582
tp3192
a(I993599
I994049
tp3193
a(I1037297
I1037719
tp3194
a(I1077146
I1077359
tp3195
a(I1118172
I1118927
tp3196
a(I1181655
I1182055
tp3197
a(I1233699
I1234229
tp3198
a(I1290483
I1290946
tp3199
a(I1324531
I1324736
tp3200
a(I1369257
I1369868
tp3201
a(I1420005
I1420179
tp3202
a(I1444642
I1444919
tp3203
a(I1467143
I1467308
tp3204
a(I1498905
I1499555
tp3205
a(I1552646
I1552989
tp3206
a(I1574758
I1574935
tp3207
a(I1636349
I1637546
tp3208
a(I1742216
I1743000
tp3209
a(I1809845
I1810251
tp3210
a(I1848850
I1849202
tp3211
a(I1907047
I1907782
tp3212
a(I1957732
I1957897
tp3213
a(I1991595
I1992057
tp3214
a(I2029661
I2029852
tp3215
a(I2066714
I2067220
tp3216
a(I2156951
I2158146
tp3217
a(I2251195
I2251513
tp3218
a(I2302135
I2302660
tp3219
a(I2343328
I2343460
tp3220
a(I2367568
I2368017
tp3221
a(I2420500
I2420947
tp3222
a(I2467608
I2467899
tp3223
a(I2486855
I2486985
tp3224
aa(lp3225
(I4455
I4603
tp3226
a(I44458
I44953
tp3227
a(I95907
I96266
tp3228
a(I131750
I132195
tp3229
a(I208228
I209609
tp3230
a(I324422
I324857
tp3231
a(I365839
I366192
tp3232
a(I396417
I396721
tp3233
a(I415765
I415909
tp3234
a(I449631
I450365
tp3235
a(I537947
I538575
tp3236
a(I592037
I592317
tp3237
a(I625954
I626291
tp3238
a(I656378
I656604
tp3239
a(I708420
I709343
tp3240
a(I786719
I787271
tp3241
a(I837395
I837755
tp3242
a(I886011
I886423
tp3243
a(I939582
I940216
tp3244
a(I994049
I994491
tp3245
a(I1037719
I1038120
tp3246
a(I1077359
I1077554
tp3247
a(I1118927
I1119674
tp3248
a(I1182055
I1182424
tp3249
a(I1234229
I1234753
tp3250
a(I1290946
I1291402
tp3251
a(I1324736
I1324929
tp3252
a(I1369868
I1370467
tp3253
a(I1420179
I1420355
tp3254
a(I1444919
I1445174
tp3255
a(I1467308
I1467461
tp3256
a(I1499555
I1500178
tp3257
a(I1552989
I1553327
tp3258
a(I1574935
I1575094
tp3259
a(I1637546
I1638738
tp3260
a(I1743000
I1743744
tp3261
a(I1810251
I1810670
tp3262
a(I1849202
I1849544
tp3263
a(I1907782
I1908491
tp3264
a(I1957897
I1958046
tp3265
a(I1992057
I1992501
tp3266
a(I2029852
I2030028
tp3267
a(I2067220
I2067727
tp3268
a(I2158146
I2159331
tp3269
a(I2251513
I2251841
tp3270
a(I2302660
I2303169
tp3271
a(I2343460
I2343588
tp3272
a(I2368017
I2368442
tp3273
a(I2420947
I2421361
tp3274
a(I2467899
I2468189
tp3275
a(I2486985
I2487105
tp3276
aa(lp3277
(I4603
I4732
tp3278
a(I44953
I45440
tp3279
a(I96266
I96624
tp3280
a(I132195
I132664
tp3281
a(I209609
I210920
tp3282
a(I324857
I325261
tp3283
a(I366192
I366532
tp3284
a(I396721
I397013
tp3285
a(I415909
I416043
tp3286
a(I450365
I451096
tp3287
a(I538575
I539217
tp3288
a(I592317
I592593
tp3289
a(I626291
I626616
tp3290
a(I656604
I656828
tp3291
a(I709343
I710265
tp3292
a(I787271
I787815
tp3293
a(I837755
I838095
tp3294
a(I886423
I886838
tp3295
a(I940216
I940846
tp3296
a(I994491
I994915
tp3297
a(I1038120
I1038512
tp3298
a(I1077554
I1077751
tp3299
a(I1119674
I1120421
tp3300
a(I1182424
I1182805
tp3301
a(I1234753
I1235261
tp3302
a(I1291402
I1291835
tp3303
a(I1324929
I1325121
tp3304
a(I1370467
I1371057
tp3305
a(I1420355
I1420521
tp3306
a(I1445174
I1445432
tp3307
a(I1467461
I1467614
tp3308
a(I1500178
I1500811
tp3309
a(I1553327
I1553652
tp3310
a(I1575094
I1575257
tp3311
a(I1638738
I1639922
tp3312
a(I1743744
I1744467
tp3313
a(I1810670
I1811086
tp3314
a(I1849544
I1849880
tp3315
a(I1908491
I1909186
tp3316
a(I1958046
I1958203
tp3317
a(I1992501
I1992962
tp3318
a(I2030028
I2030196
tp3319
a(I2067727
I2068218
tp3320
a(I2159331
I2160507
tp3321
a(I2251841
I2252175
tp3322
a(I2303169
I2303684
tp3323
a(I2343588
I2343705
tp3324
a(I2368442
I2368873
tp3325
a(I2421361
I2421770
tp3326
a(I2468189
I2468461
tp3327
a(I2487105
I2487226
tp3328
aa(lp3329
(I4732
I4870
tp3330
a(I45440
I45935
tp3331
a(I96624
I97000
tp3332
a(I132664
I133126
tp3333
a(I210920
I212305
tp3334
a(I325261
I325673
tp3335
a(I366532
I366867
tp3336
a(I397013
I397292
tp3337
a(I416043
I416184
tp3338
a(I451096
I451862
tp3339
a(I539217
I539844
tp3340
a(I592593
I592881
tp3341
a(I626616
I626959
tp3342
a(I656828
I657062
tp3343
a(I710265
I711199
tp3344
a(I787815
I788354
tp3345
a(I838095
I838435
tp3346
a(I886838
I887267
tp3347
a(I940846
I941467
tp3348
a(I994915
I995342
tp3349
a(I1038512
I1038899
tp3350
a(I1077751
I1077938
tp3351
a(I1120421
I1121162
tp3352
a(I1182805
I1183193
tp3353
a(I1235261
I1235790
tp3354
a(I1291835
I1292274
tp3355
a(I1325121
I1325311
tp3356
a(I1371057
I1371659
tp3357
a(I1420521
I1420686
tp3358
a(I1445432
I1445685
tp3359
a(I1467614
I1467762
tp3360
a(I1500811
I1501445
tp3361
a(I1553652
I1553989
tp3362
a(I1575257
I1575414
tp3363
a(I1639922
I1641132
tp3364
a(I1744467
I1745186
tp3365
a(I1811086
I1811487
tp3366
a(I1849880
I1850234
tp3367
a(I1909186
I1909897
tp3368
a(I1958203
I1958349
tp3369
a(I1992962
I1993420
tp3370
a(I2030196
I2030373
tp3371
a(I2068218
I2068718
tp3372
a(I2160507
I2161696
tp3373
a(I2252175
I2252536
tp3374
a(I2303684
I2304189
tp3375
a(I2343705
I2343822
tp3376
a(I2368873
I2369323
tp3377
a(I2421770
I2422202
tp3378
a(I2468461
I2468736
tp3379
a(I2487226
I2487348
tp3380
aa(lp3381
(I4870
I5014
tp3382
a(I45935
I46445
tp3383
a(I97000
I97380
tp3384
a(I133126
I133587
tp3385
a(I212305
I213750
tp3386
a(I325673
I326094
tp3387
a(I366867
I367211
tp3388
a(I397292
I397572
tp3389
a(I416184
I416319
tp3390
a(I451862
I452600
tp3391
a(I539844
I540481
tp3392
a(I592881
I593163
tp3393
a(I626959
I627308
tp3394
a(I657062
I657299
tp3395
a(I711199
I712163
tp3396
a(I788354
I788908
tp3397
a(I838435
I838776
tp3398
a(I887267
I887682
tp3399
a(I941467
I942129
tp3400
a(I995342
I995766
tp3401
a(I1038899
I1039295
tp3402
a(I1077938
I1078120
tp3403
a(I1121162
I1121908
tp3404
a(I1183193
I1183593
tp3405
a(I1235790
I1236298
tp3406
a(I1292274
I1292738
tp3407
a(I1325311
I1325507
tp3408
a(I1371659
I1372252
tp3409
a(I1420686
I1420856
tp3410
a(I1445685
I1445952
tp3411
a(I1467762
I1467904
tp3412
a(I1501445
I1502063
tp3413
a(I1553989
I1554325
tp3414
a(I1575414
I1575569
tp3415
a(I1641132
I1642370
tp3416
a(I1745186
I1745950
tp3417
a(I1811487
I1811913
tp3418
a(I1850234
I1850600
tp3419
a(I1909897
I1910628
tp3420
a(I1958349
I1958481
tp3421
a(I1993420
I1993876
tp3422
a(I2030373
I2030552
tp3423
a(I2068718
I2069229
tp3424
a(I2161696
I2162926
tp3425
a(I2252536
I2252899
tp3426
a(I2304189
I2304702
tp3427
a(I2343822
I2343939
tp3428
a(I2369323
I2369787
tp3429
a(I2422202
I2422640
tp3430
a(I2468736
I2469003
tp3431
a(I2487348
I2487475
tp3432
aa(lp3433
(I5014
I5154
tp3434
a(I46445
I46950
tp3435
a(I97380
I97744
tp3436
a(I133587
I134051
tp3437
a(I213750
I215249
tp3438
a(I326094
I326530
tp3439
a(I367211
I367544
tp3440
a(I397572
I397858
tp3441
a(I416319
I416455
tp3442
a(I452600
I453358
tp3443
a(I540481
I541123
tp3444
a(I593163
I593464
tp3445
a(I627308
I627652
tp3446
a(I657299
I657547
tp3447
a(I712163
I713130
tp3448
a(I788908
I789455
tp3449
a(I838776
I839130
tp3450
a(I887682
I888112
tp3451
a(I942129
I942777
tp3452
a(I995766
I996186
tp3453
a(I1039295
I1039685
tp3454
a(I1078120
I1078307
tp3455
a(I1121908
I1122652
tp3456
a(I1183593
I1183992
tp3457
a(I1236298
I1236812
tp3458
a(I1292738
I1293180
tp3459
a(I1325507
I1325705
tp3460
a(I1372252
I1372853
tp3461
a(I1420856
I1421029
tp3462
a(I1445952
I1446196
tp3463
a(I1467904
I1468048
tp3464
a(I1502063
I1502706
tp3465
a(I1554325
I1554683
tp3466
a(I1575569
I1575730
tp3467
a(I1642370
I1643646
tp3468
a(I1745950
I1746702
tp3469
a(I1811913
I1812328
tp3470
a(I1850600
I1850974
tp3471
a(I1910628
I1911339
tp3472
a(I1958481
I1958630
tp3473
a(I1993876
I1994334
tp3474
a(I2030552
I2030735
tp3475
a(I2069229
I2069726
tp3476
a(I2162926
I2164141
tp3477
a(I2252899
I2253276
tp3478
a(I2304702
I2305203
tp3479
a(I2343939
I2344048
tp3480
a(I2369787
I2370253
tp3481
a(I2422640
I2423069
tp3482
a(I2469003
I2469284
tp3483
a(I2487475
I2487606
tp3484
aa(lp3485
(I5154
I5304
tp3486
a(I46950
I47486
tp3487
a(I97744
I98126
tp3488
a(I134051
I134515
tp3489
a(I215249
I216758
tp3490
a(I326530
I326972
tp3491
a(I367544
I367872
tp3492
a(I397858
I398160
tp3493
a(I416455
I416592
tp3494
a(I453358
I454127
tp3495
a(I541123
I541785
tp3496
a(I593464
I593749
tp3497
a(I627652
I627999
tp3498
a(I657547
I657807
tp3499
a(I713130
I714110
tp3500
a(I789455
I790014
tp3501
a(I839130
I839491
tp3502
a(I888112
I888545
tp3503
a(I942777
I943469
tp3504
a(I996186
I996605
tp3505
a(I1039685
I1040104
tp3506
a(I1078307
I1078496
tp3507
a(I1122652
I1123421
tp3508
a(I1183992
I1184396
tp3509
a(I1236812
I1237343
tp3510
a(I1293180
I1293651
tp3511
a(I1325705
I1325909
tp3512
a(I1372853
I1373477
tp3513
a(I1421029
I1421214
tp3514
a(I1446196
I1446462
tp3515
a(I1468048
I1468202
tp3516
a(I1502706
I1503357
tp3517
a(I1554683
I1555026
tp3518
a(I1575730
I1575897
tp3519
a(I1643646
I1644926
tp3520
a(I1746702
I1747471
tp3521
a(I1812328
I1812760
tp3522
a(I1850974
I1851365
tp3523
a(I1911339
I1912068
tp3524
a(I1958630
I1958794
tp3525
a(I1994334
I1994820
tp3526
a(I2030735
I2030913
tp3527
a(I2069726
I2070264
tp3528
a(I2164141
I2165384
tp3529
a(I2253276
I2253670
tp3530
a(I2305203
I2305736
tp3531
a(I2344048
I2344160
tp3532
a(I2370253
I2370729
tp3533
a(I2423069
I2423531
tp3534
a(I2469284
I2469580
tp3535
a(I2487606
I2487753
tp3536
aa(lp3537
(I5304
I5448
tp3538
a(I47486
I48004
tp3539
a(I98126
I98473
tp3540
a(I134515
I134987
tp3541
a(I216758
I218276
tp3542
a(I326972
I327411
tp3543
a(I367872
I368218
tp3544
a(I398160
I398457
tp3545
a(I416592
I416740
tp3546
a(I454127
I454909
tp3547
a(I541785
I542468
tp3548
a(I593749
I594042
tp3549
a(I627999
I628354
tp3550
a(I657807
I658070
tp3551
a(I714110
I715106
tp3552
a(I790014
I790558
tp3553
a(I839491
I839841
tp3554
a(I888545
I888969
tp3555
a(I943469
I944151
tp3556
a(I996605
I997025
tp3557
a(I1040104
I1040496
tp3558
a(I1078496
I1078684
tp3559
a(I1123421
I1124170
tp3560
a(I1184396
I1184797
tp3561
a(I1237343
I1237857
tp3562
a(I1293651
I1294112
tp3563
a(I1325909
I1326105
tp3564
a(I1373477
I1374093
tp3565
a(I1421214
I1421391
tp3566
a(I1446462
I1446735
tp3567
a(I1468202
I1468350
tp3568
a(I1503357
I1504005
tp3569
a(I1555026
I1555385
tp3570
a(I1575897
I1576064
tp3571
a(I1644926
I1646202
tp3572
a(I1747471
I1748218
tp3573
a(I1812760
I1813193
tp3574
a(I1851365
I1851759
tp3575
a(I1912068
I1912811
tp3576
a(I1958794
I1958939
tp3577
a(I1994820
I1995303
tp3578
a(I2030913
I2031099
tp3579
a(I2070264
I2070795
tp3580
a(I2165384
I2166636
tp3581
a(I2253670
I2254071
tp3582
a(I2305736
I2306266
tp3583
a(I2344160
I2344272
tp3584
a(I2370729
I2371226
tp3585
a(I2423531
I2423970
tp3586
a(I2469580
I2469847
tp3587
a(I2487753
I2487896
tp3588
aa(lp3589
(I5448
I5612
tp3590
a(I48004
I48537
tp3591
a(I98473
I98876
tp3592
a(I134987
I135473
tp3593
a(I218276
I219910
tp3594
a(I327411
I327861
tp3595
a(I368218
I368579
tp3596
a(I398457
I398750
tp3597
a(I416740
I416891
tp3598
a(I454909
I455730
tp3599
a(I542468
I543154
tp3600
a(I594042
I594342
tp3601
a(I628354
I628706
tp3602
a(I658070
I658334
tp3603
a(I715106
I716111
tp3604
a(I790558
I791118
tp3605
a(I839841
I840198
tp3606
a(I888969
I889399
tp3607
a(I944151
I944855
tp3608
a(I997025
I997449
tp3609
a(I1040496
I1040915
tp3610
a(I1078684
I1078873
tp3611
a(I1124170
I1124943
tp3612
a(I1184797
I1185197
tp3613
a(I1237857
I1238393
tp3614
a(I1294112
I1294588
tp3615
a(I1326105
I1326304
tp3616
a(I1374093
I1374684
tp3617
a(I1421391
I1421570
tp3618
a(I1446735
I1447004
tp3619
a(I1468350
I1468499
tp3620
a(I1504005
I1504669
tp3621
a(I1555385
I1555758
tp3622
a(I1576064
I1576261
tp3623
a(I1646202
I1647440
tp3624
a(I1748218
I1748980
tp3625
a(I1813193
I1813633
tp3626
a(I1851759
I1852168
tp3627
a(I1912811
I1913582
tp3628
a(I1958939
I1959098
tp3629
a(I1995303
I1995801
tp3630
a(I2031099
I2031284
tp3631
a(I2070795
I2071335
tp3632
a(I2166636
I2167981
tp3633
a(I2254071
I2254474
tp3634
a(I2306266
I2306823
tp3635
a(I2344272
I2344399
tp3636
a(I2371226
I2371766
tp3637
a(I2423970
I2424424
tp3638
a(I2469847
I2470122
tp3639
a(I2487896
I2488065
tp3640
aa(lp3641
(I5612
I5783
tp3642
a(I48537
I49067
tp3643
a(I98876
I99269
tp3644
a(I135473
I135972
tp3645
a(I219910
I221616
tp3646
a(I327861
I328316
tp3647
a(I368579
I368912
tp3648
a(I398750
I399043
tp3649
a(I416891
I417039
tp3650
a(I455730
I456572
tp3651
a(I543154
I543840
tp3652
a(I594342
I594669
tp3653
a(I628706
I629060
tp3654
a(I658334
I658594
tp3655
a(I716111
I717140
tp3656
a(I791118
I791684
tp3657
a(I840198
I840586
tp3658
a(I889399
I889842
tp3659
a(I944855
I945579
tp3660
a(I997449
I997863
tp3661
a(I1040915
I1041333
tp3662
a(I1078873
I1079053
tp3663
a(I1124943
I1125683
tp3664
a(I1185197
I1185614
tp3665
a(I1238393
I1238923
tp3666
a(I1294588
I1295065
tp3667
a(I1326304
I1326504
tp3668
a(I1374684
I1375311
tp3669
a(I1421570
I1421753
tp3670
a(I1447004
I1447281
tp3671
a(I1468499
I1468658
tp3672
a(I1504669
I1505319
tp3673
a(I1555758
I1556148
tp3674
a(I1576261
I1576460
tp3675
a(I1647440
I1648718
tp3676
a(I1748980
I1749762
tp3677
a(I1813633
I1814082
tp3678
a(I1852168
I1852581
tp3679
a(I1913582
I1914347
tp3680
a(I1959098
I1959253
tp3681
a(I1995801
I1996305
tp3682
a(I2031284
I2031479
tp3683
a(I2071335
I2071876
tp3684
a(I2167981
I2169333
tp3685
a(I2254474
I2254909
tp3686
a(I2306823
I2307370
tp3687
a(I2344399
I2344518
tp3688
a(I2371766
I2372311
tp3689
a(I2424424
I2424914
tp3690
a(I2470122
I2470398
tp3691
a(I2488065
I2488227
tp3692
aa(lp3693
(I5783
I5964
tp3694
a(I49067
I49584
tp3695
a(I99269
I99640
tp3696
a(I135972
I136466
tp3697
a(I221616
I223375
tp3698
a(I328316
I328801
tp3699
a(I368912
I369261
tp3700
a(I399043
I399345
tp3701
a(I417039
I417185
tp3702
a(I456572
I457460
tp3703
a(I543840
I544514
tp3704
a(I594669
I594978
tp3705
a(I629060
I629414
tp3706
a(I658594
I658845
tp3707
a(I717140
I718148
tp3708
a(I791684
I792226
tp3709
a(I840586
I840969
tp3710
a(I889842
I890257
tp3711
a(I945579
I946292
tp3712
a(I997863
I998295
tp3713
a(I1041333
I1041767
tp3714
a(I1079053
I1079235
tp3715
a(I1125683
I1126433
tp3716
a(I1185614
I1186024
tp3717
a(I1238923
I1239447
tp3718
a(I1295065
I1295550
tp3719
a(I1326504
I1326699
tp3720
a(I1375311
I1375917
tp3721
a(I1421753
I1421944
tp3722
a(I1447281
I1447536
tp3723
a(I1468658
I1468814
tp3724
a(I1505319
I1505973
tp3725
a(I1556148
I1556518
tp3726
a(I1576460
I1576671
tp3727
a(I1648718
I1649971
tp3728
a(I1749762
I1750527
tp3729
a(I1814082
I1814548
tp3730
a(I1852581
I1852990
tp3731
a(I1914347
I1915085
tp3732
a(I1959253
I1959413
tp3733
a(I1996305
I1996788
tp3734
a(I2031479
I2031664
tp3735
a(I2071876
I2072378
tp3736
a(I2169333
I2170744
tp3737
a(I2254909
I2255321
tp3738
a(I2307370
I2307915
tp3739
a(I2344518
I2344638
tp3740
a(I2372311
I2372860
tp3741
a(I2424914
I2425366
tp3742
a(I2470398
I2470660
tp3743
a(I2488227
I2488393
tp3744
aa(lp3745
(I5964
I6158
tp3746
a(I49584
I50104
tp3747
a(I99640
I100014
tp3748
a(I136466
I136971
tp3749
a(I223375
I225201
tp3750
a(I328801
I329288
tp3751
a(I369261
I369602
tp3752
a(I399345
I399634
tp3753
a(I417185
I417335
tp3754
a(I457460
I458371
tp3755
a(I544514
I545192
tp3756
a(I594978
I595280
tp3757
a(I629414
I629748
tp3758
a(I658845
I659104
tp3759
a(I718148
I719143
tp3760
a(I792226
I792770
tp3761
a(I840969
I841362
tp3762
a(I890257
I890685
tp3763
a(I946292
I947024
tp3764
a(I998295
I998737
tp3765
a(I1041767
I1042200
tp3766
a(I1079235
I1079417
tp3767
a(I1126433
I1127164
tp3768
a(I1186024
I1186446
tp3769
a(I1239447
I1239974
tp3770
a(I1295550
I1296041
tp3771
a(I1326699
I1326900
tp3772
a(I1375917
I1376532
tp3773
a(I1421944
I1422130
tp3774
a(I1447536
I1447785
tp3775
a(I1468814
I1468970
tp3776
a(I1505973
I1506636
tp3777
a(I1556518
I1556892
tp3778
a(I1576671
I1576877
tp3779
a(I1649971
I1651279
tp3780
a(I1750527
I1751292
tp3781
a(I1814548
I1815053
tp3782
a(I1852990
I1853386
tp3783
a(I1915085
I1915841
tp3784
a(I1959413
I1959570
tp3785
a(I1996788
I1997276
tp3786
a(I2031664
I2031858
tp3787
a(I2072378
I2072882
tp3788
a(I2170744
I2172189
tp3789
a(I2255321
I2255735
tp3790
a(I2307915
I2308464
tp3791
a(I2344638
I2344761
tp3792
a(I2372860
I2373418
tp3793
a(I2425366
I2425820
tp3794
a(I2470660
I2470909
tp3795
a(I2488393
I2488556
tp3796
aa(lp3797
(I6158
I6350
tp3798
a(I50104
I50608
tp3799
a(I100014
I100371
tp3800
a(I136971
I137475
tp3801
a(I225201
I227052
tp3802
a(I329288
I329757
tp3803
a(I369602
I369943
tp3804
a(I399634
I399915
tp3805
a(I417335
I417483
tp3806
a(I458371
I459308
tp3807
a(I545192
I545874
tp3808
a(I595280
I595594
tp3809
a(I629748
I630078
tp3810
a(I659104
I659352
tp3811
a(I719143
I720097
tp3812
a(I792770
I793293
tp3813
a(I841362
I841738
tp3814
a(I890685
I891094
tp3815
a(I947024
I947738
tp3816
a(I998737
I999181
tp3817
a(I1042200
I1042637
tp3818
a(I1079417
I1079598
tp3819
a(I1127164
I1127854
tp3820
a(I1186446
I1186844
tp3821
a(I1239974
I1240487
tp3822
a(I1296041
I1296487
tp3823
a(I1326900
I1327091
tp3824
a(I1376532
I1377144
tp3825
a(I1422130
I1422301
tp3826
a(I1447785
I1448040
tp3827
a(I1468970
I1469118
tp3828
a(I1506636
I1507297
tp3829
a(I1556892
I1557274
tp3830
a(I1576877
I1577094
tp3831
a(I1651279
I1652578
tp3832
a(I1751292
I1752029
tp3833
a(I1815053
I1815544
tp3834
a(I1853386
I1853757
tp3835
a(I1915841
I1916579
tp3836
a(I1959570
I1959724
tp3837
a(I1997276
I1997750
tp3838
a(I2031858
I2032034
tp3839
a(I2072882
I2073390
tp3840
a(I2172189
I2173581
tp3841
a(I2255735
I2256134
tp3842
a(I2308464
I2309006
tp3843
a(I2344761
I2344886
tp3844
a(I2373418
I2373943
tp3845
a(I2425820
I2426272
tp3846
a(I2470909
I2471164
tp3847
a(I2488556
I2488713
tp3848
aa(lp3849
(I6350
I6546
tp3850
a(I50608
I51095
tp3851
a(I100371
I100741
tp3852
a(I137475
I138011
tp3853
a(I227052
I228928
tp3854
a(I329757
I330218
tp3855
a(I369943
I370306
tp3856
a(I399915
I400204
tp3857
a(I417483
I417629
tp3858
a(I459308
I460229
tp3859
a(I545874
I546562
tp3860
a(I595594
I595891
tp3861
a(I630078
I630404
tp3862
a(I659352
I659614
tp3863
a(I720097
I721074
tp3864
a(I793293
I793816
tp3865
a(I841738
I842107
tp3866
a(I891094
I891494
tp3867
a(I947738
I948436
tp3868
a(I999181
I999614
tp3869
a(I1042637
I1043082
tp3870
a(I1079598
I1079787
tp3871
a(I1127854
I1128589
tp3872
a(I1186844
I1187253
tp3873
a(I1240487
I1241000
tp3874
a(I1296487
I1296932
tp3875
a(I1327091
I1327294
tp3876
a(I1377144
I1377743
tp3877
a(I1422301
I1422480
tp3878
a(I1448040
I1448297
tp3879
a(I1469118
I1469277
tp3880
a(I1507297
I1507951
tp3881
a(I1557274
I1557652
tp3882
a(I1577094
I1577305
tp3883
a(I1652578
I1653869
tp3884
a(I1752029
I1752776
tp3885
a(I1815544
I1816037
tp3886
a(I1853757
I1854140
tp3887
a(I1916579
I1917314
tp3888
a(I1959724
I1959881
tp3889
a(I1997750
I1998215
tp3890
a(I2032034
I2032208
tp3891
a(I2073390
I2073906
tp3892
a(I2173581
I2174989
tp3893
a(I2256134
I2256520
tp3894
a(I2309006
I2309567
tp3895
a(I2344886
I2345016
tp3896
a(I2373943
I2374486
tp3897
a(I2426272
I2426742
tp3898
a(I2471164
I2471409
tp3899
a(I2488713
I2488869
tp3900
aa(lp3901
(I6546
I6743
tp3902
a(I51095
I51624
tp3903
a(I100741
I101126
tp3904
a(I138011
I138545
tp3905
a(I228928
I230893
tp3906
a(I330218
I330694
tp3907
a(I370306
I370663
tp3908
a(I400204
I400500
tp3909
a(I417629
I417778
tp3910
a(I460229
I461204
tp3911
a(I546562
I547274
tp3912
a(I595891
I596175
tp3913
a(I630404
I630741
tp3914
a(I659614
I659853
tp3915
a(I721074
I722072
tp3916
a(I793816
I794355
tp3917
a(I842107
I842478
tp3918
a(I891494
I891896
tp3919
a(I948436
I949165
tp3920
a(I999614
I1000080
tp3921
a(I1043082
I1043538
tp3922
a(I1079787
I1079972
tp3923
a(I1128589
I1129325
tp3924
a(I1187253
I1187663
tp3925
a(I1241000
I1241538
tp3926
a(I1296932
I1297379
tp3927
a(I1327294
I1327503
tp3928
a(I1377743
I1378383
tp3929
a(I1422480
I1422660
tp3930
a(I1448297
I1448555
tp3931
a(I1469277
I1469440
tp3932
a(I1507951
I1508639
tp3933
a(I1557652
I1558022
tp3934
a(I1577305
I1577522
tp3935
a(I1653869
I1655191
tp3936
a(I1752776
I1753544
tp3937
a(I1816037
I1816520
tp3938
a(I1854140
I1854516
tp3939
a(I1917314
I1918075
tp3940
a(I1959881
I1960046
tp3941
a(I1998215
I1998710
tp3942
a(I2032208
I2032390
tp3943
a(I2073906
I2074434
tp3944
a(I2174989
I2176479
tp3945
a(I2256520
I2256912
tp3946
a(I2309567
I2310154
tp3947
a(I2345016
I2345140
tp3948
a(I2374486
I2375031
tp3949
a(I2426742
I2427226
tp3950
a(I2471409
I2471646
tp3951
a(I2488869
I2489022
tp3952
aa(lp3953
(I6743
I6931
tp3954
a(I51624
I52137
tp3955
a(I101126
I101487
tp3956
a(I138545
I139101
tp3957
a(I230893
I232950
tp3958
a(I330694
I331179
tp3959
a(I370663
I371023
tp3960
a(I400500
I400794
tp3961
a(I417778
I417921
tp3962
a(I461204
I462205
tp3963
a(I547274
I548012
tp3964
a(I596175
I596458
tp3965
a(I630741
I631071
tp3966
a(I659853
I660094
tp3967
a(I722072
I723064
tp3968
a(I794355
I794907
tp3969
a(I842478
I842871
tp3970
a(I891896
I892303
tp3971
a(I949165
I949875
tp3972
a(I1000080
I1000562
tp3973
a(I1043538
I1044024
tp3974
a(I1079972
I1080158
tp3975
a(I1129325
I1130096
tp3976
a(I1187663
I1188083
tp3977
a(I1241538
I1242082
tp3978
a(I1297379
I1297834
tp3979
a(I1327503
I1327699
tp3980
a(I1378383
I1379041
tp3981
a(I1422660
I1422830
tp3982
a(I1448555
I1448819
tp3983
a(I1469440
I1469604
tp3984
a(I1508639
I1509312
tp3985
a(I1558022
I1558395
tp3986
a(I1577522
I1577745
tp3987
a(I1655191
I1656565
tp3988
a(I1753544
I1754323
tp3989
a(I1816520
I1817008
tp3990
a(I1854516
I1854889
tp3991
a(I1918075
I1918870
tp3992
a(I1960046
I1960202
tp3993
a(I1998710
I1999207
tp3994
a(I2032390
I2032571
tp3995
a(I2074434
I2074950
tp3996
a(I2176479
I2177975
tp3997
a(I2256912
I2257300
tp3998
a(I2310154
I2310756
tp3999
a(I2345140
I2345267
tp4000
a(I2375031
I2375593
tp4001
a(I2427226
I2427714
tp4002
a(I2471646
I2471898
tp4003
a(I2489022
I2489160
tp4004
aa(lp4005
(I6931
I7125
tp4006
a(I52137
I52666
tp4007
a(I101487
I101873
tp4008
a(I139101
I139684
tp4009
a(I232950
I235068
tp4010
a(I331179
I331670
tp4011
a(I371023
I371426
tp4012
a(I400794
I401106
tp4013
a(I417921
I418069
tp4014
a(I462205
I463248
tp4015
a(I548012
I548774
tp4016
a(I596458
I596755
tp4017
a(I631071
I631402
tp4018
a(I660094
I660322
tp4019
a(I723064
I724087
tp4020
a(I794907
I795456
tp4021
a(I842871
I843273
tp4022
a(I892303
I892713
tp4023
a(I949875
I950575
tp4024
a(I1000562
I1001070
tp4025
a(I1044024
I1044515
tp4026
a(I1080158
I1080339
tp4027
a(I1130096
I1130866
tp4028
a(I1188083
I1188522
tp4029
a(I1242082
I1242627
tp4030
a(I1297834
I1298291
tp4031
a(I1327699
I1327897
tp4032
a(I1379041
I1379707
tp4033
a(I1422830
I1423001
tp4034
a(I1448819
I1449068
tp4035
a(I1469604
I1469784
tp4036
a(I1509312
I1510034
tp4037
a(I1558395
I1558763
tp4038
a(I1577745
I1577993
tp4039
a(I1656565
I1658003
tp4040
a(I1754323
I1755122
tp4041
a(I1817008
I1817476
tp4042
a(I1854889
I1855284
tp4043
a(I1918870
I1919654
tp4044
a(I1960202
I1960363
tp4045
a(I1999207
I1999704
tp4046
a(I2032571
I2032753
tp4047
a(I2074950
I2075493
tp4048
a(I2177975
I2179476
tp4049
a(I2257300
I2257686
tp4050
a(I2310756
I2311380
tp4051
a(I2345267
I2345387
tp4052
a(I2375593
I2376165
tp4053
a(I2427714
I2428205
tp4054
a(I2471898
I2472134
tp4055
a(I2489160
I2489286
tp4056
aa(lp4057
(I7125
I7315
tp4058
a(I52666
I53203
tp4059
a(I101873
I102249
tp4060
a(I139684
I140275
tp4061
a(I235068
I237316
tp4062
a(I331670
I332156
tp4063
a(I371426
I371830
tp4064
a(I401106
I401429
tp4065
a(I418069
I418235
tp4066
a(I463248
I464347
tp4067
a(I548774
I549575
tp4068
a(I596755
I597064
tp4069
a(I631402
I631757
tp4070
a(I660322
I660553
tp4071
a(I724087
I725148
tp4072
a(I795456
I796044
tp4073
a(I843273
I843665
tp4074
a(I892713
I893111
tp4075
a(I950575
I951269
tp4076
a(I1001070
I1001598
tp4077
a(I1044515
I1045039
tp4078
a(I1080339
I1080533
tp4079
a(I1130866
I1131662
tp4080
a(I1188522
I1188969
tp4081
a(I1242627
I1243199
tp4082
a(I1298291
I1298755
tp4083
a(I1327897
I1328092
tp4084
a(I1379707
I1380413
tp4085
a(I1423001
I1423169
tp4086
a(I1449068
I1449330
tp4087
a(I1469784
I1469957
tp4088
a(I1510034
I1510780
tp4089
a(I1558763
I1559152
tp4090
a(I1577993
I1578244
tp4091
a(I1658003
I1659523
tp4092
a(I1755122
I1755952
tp4093
a(I1817476
I1817961
tp4094
a(I1855284
I1855707
tp4095
a(I1919654
I1920500
tp4096
a(I1960363
I1960541
tp4097
a(I1999704
I2000232
tp4098
a(I2032753
I2032933
tp4099
a(I2075493
I2076062
tp4100
a(I2179476
I2181023
tp4101
a(I2257686
I2258097
tp4102
a(I2311380
I2312023
tp4103
a(I2345387
I2345520
tp4104
a(I2376165
I2376745
tp4105
a(I2428205
I2428718
tp4106
a(I2472134
I2472371
tp4107
a(I2489286
I2489417
tp4108
aa(lp4109
(I7315
I7516
tp4110
a(I53203
I53754
tp4111
a(I102249
I102646
tp4112
a(I140275
I140905
tp4113
a(I237316
I239721
tp4114
a(I332156
I332665
tp4115
a(I371830
I372259
tp4116
a(I401429
I402055
tp4117
a(I418235
I418405
tp4118
a(I464347
I465487
tp4119
a(I549575
I550411
tp4120
a(I597064
I597356
tp4121
a(I631757
I632111
tp4122
a(I660553
I660805
tp4123
a(I725148
I726272
tp4124
a(I796044
I796642
tp4125
a(I843665
I844082
tp4126
a(I893111
I893541
tp4127
a(I951269
I951975
tp4128
a(I1001598
I1002160
tp4129
a(I1045039
I1045594
tp4130
a(I1080533
I1080723
tp4131
a(I1131662
I1132530
tp4132
a(I1188969
I1189448
tp4133
a(I1243199
I1243804
tp4134
a(I1298755
I1299252
tp4135
a(I1328092
I1328291
tp4136
a(I1380413
I1381155
tp4137
a(I1423169
I1423345
tp4138
a(I1449330
I1449610
tp4139
a(I1469957
I1470152
tp4140
a(I1510780
I1511607
tp4141
a(I1559152
I1559552
tp4142
a(I1578244
I1578518
tp4143
a(I1659523
I1661107
tp4144
a(I1755952
I1756826
tp4145
a(I1817961
I1818448
tp4146
a(I1855707
I1856137
tp4147
a(I1920500
I1921367
tp4148
a(I1960541
I1960734
tp4149
a(I2000232
I2000776
tp4150
a(I2032933
I2033122
tp4151
a(I2076062
I2076659
tp4152
a(I2181023
I2182567
tp4153
a(I2258097
I2258522
tp4154
a(I2312023
I2312714
tp4155
a(I2345520
I2345655
tp4156
a(I2376745
I2377360
tp4157
a(I2428718
I2429254
tp4158
a(I2472371
I2472614
tp4159
a(I2489417
I2489549
tp4160
aa(lp4161
(I7516
I7707
tp4162
a(I53754
I54331
tp4163
a(I102646
I103067
tp4164
a(I140905
I141534
tp4165
a(I239721
I242236
tp4166
a(I332665
I333185
tp4167
a(I372259
I372693
tp4168
a(I402055
I402500
tp4169
a(I418405
I418578
tp4170
a(I465487
I466672
tp4171
a(I550411
I551298
tp4172
a(I597356
I597669
tp4173
a(I632111
I632468
tp4174
a(I660805
I661072
tp4175
a(I726272
I727452
tp4176
a(I796642
I797250
tp4177
a(I844082
I844498
tp4178
a(I893541
I893980
tp4179
a(I951975
I952694
tp4180
a(I1002160
I1002741
tp4181
a(I1045594
I1046200
tp4182
a(I1080723
I1080933
tp4183
a(I1132530
I1133447
tp4184
a(I1189448
I1189937
tp4185
a(I1243804
I1244435
tp4186
a(I1299252
I1299753
tp4187
a(I1328291
I1328503
tp4188
a(I1381155
I1381949
tp4189
a(I1423345
I1423508
tp4190
a(I1449610
I1449892
tp4191
a(I1470152
I1470346
tp4192
a(I1511607
I1512423
tp4193
a(I1559552
I1559951
tp4194
a(I1578518
I1578815
tp4195
a(I1661107
I1662788
tp4196
a(I1756826
I1757726
tp4197
a(I1818448
I1818933
tp4198
a(I1856137
I1856599
tp4199
a(I1921367
I1922257
tp4200
a(I1960734
I1960924
tp4201
a(I2000776
I2001367
tp4202
a(I2033122
I2033311
tp4203
a(I2076659
I2077257
tp4204
a(I2182567
I2184159
tp4205
a(I2258522
I2258949
tp4206
a(I2312714
I2313449
tp4207
a(I2345655
I2345784
tp4208
a(I2377360
I2378005
tp4209
a(I2429254
I2429805
tp4210
a(I2472614
I2472863
tp4211
a(I2489549
I2489672
tp4212
aa(lp4213
(I7707
I7918
tp4214
a(I54331
I54920
tp4215
a(I103067
I103481
tp4216
a(I141534
I142163
tp4217
a(I242236
I244746
tp4218
a(I333185
I333713
tp4219
a(I372693
I373133
tp4220
a(I402500
I402853
tp4221
a(I418578
I418766
tp4222
a(I466672
I467871
tp4223
a(I551298
I552216
tp4224
a(I597669
I597973
tp4225
a(I632468
I632833
tp4226
a(I661072
I661340
tp4227
a(I727452
I728639
tp4228
a(I797250
I797875
tp4229
a(I844498
I844911
tp4230
a(I893980
I894428
tp4231
a(I952694
I953415
tp4232
a(I1002741
I1003304
tp4233
a(I1046200
I1046817
tp4234
a(I1080933
I1081145
tp4235
a(I1133447
I1134382
tp4236
a(I1189937
I1190416
tp4237
a(I1244435
I1245044
tp4238
a(I1299753
I1300256
tp4239
a(I1328503
I1328702
tp4240
a(I1381949
I1382755
tp4241
a(I1423508
I1423676
tp4242
a(I1449892
I1450173
tp4243
a(I1470346
I1470531
tp4244
a(I1512423
I1513277
tp4245
a(I1559951
I1560355
tp4246
a(I1578815
I1579131
tp4247
a(I1662788
I1664465
tp4248
a(I1757726
I1758661
tp4249
a(I1818933
I1819432
tp4250
a(I1856599
I1857053
tp4251
a(I1922257
I1923165
tp4252
a(I1960924
I1961127
tp4253
a(I2001367
I2001945
tp4254
a(I2033311
I2033500
tp4255
a(I2077257
I2077870
tp4256
a(I2184159
I2185823
tp4257
a(I2258949
I2259389
tp4258
a(I2313449
I2314182
tp4259
a(I2345784
I2345920
tp4260
a(I2378005
I2378673
tp4261
a(I2429805
I2430376
tp4262
a(I2472863
I2473111
tp4263
a(I2489672
I2489821
tp4264
aa(lp4265
(I7918
I8115
tp4266
a(I54920
I55529
tp4267
a(I103481
I103888
tp4268
a(I142163
I142796
tp4269
a(I244746
I247314
tp4270
a(I333713
I334277
tp4271
a(I373133
I373563
tp4272
a(I402853
I403203
tp4273
a(I418766
I418949
tp4274
a(I467871
I469085
tp4275
a(I552216
I553158
tp4276
a(I597973
I598283
tp4277
a(I632833
I633207
tp4278
a(I661340
I661626
tp4279
a(I728639
I729852
tp4280
a(I797875
I798526
tp4281
a(I844911
I845334
tp4282
a(I894428
I894875
tp4283
a(I953415
I954196
tp4284
a(I1003304
I1003876
tp4285
a(I1046817
I1047437
tp4286
a(I1081145
I1081358
tp4287
a(I1134382
I1135304
tp4288
a(I1190416
I1190920
tp4289
a(I1245044
I1245681
tp4290
a(I1300256
I1300766
tp4291
a(I1328702
I1328908
tp4292
a(I1382755
I1383594
tp4293
a(I1423676
I1423857
tp4294
a(I1450173
I1450475
tp4295
a(I1470531
I1470718
tp4296
a(I1513277
I1514149
tp4297
a(I1560355
I1560759
tp4298
a(I1579131
I1579452
tp4299
a(I1664465
I1666158
tp4300
a(I1758661
I1759585
tp4301
a(I1819432
I1819957
tp4302
a(I1857053
I1857521
tp4303
a(I1923165
I1924096
tp4304
a(I1961127
I1961325
tp4305
a(I2001945
I2002528
tp4306
a(I2033500
I2033695
tp4307
a(I2077870
I2078507
tp4308
a(I2185823
I2187540
tp4309
a(I2259389
I2259843
tp4310
a(I2314182
I2314930
tp4311
a(I2345920
I2346057
tp4312
a(I2378673
I2379359
tp4313
a(I2430376
I2430950
tp4314
a(I2473111
I2473374
tp4315
a(I2489821
I2489963
tp4316
aa(lp4317
(I8115
I8314
tp4318
a(I55529
I56152
tp4319
a(I103888
I104305
tp4320
a(I142796
I143441
tp4321
a(I247314
I249863
tp4322
a(I334277
I334832
tp4323
a(I373563
I373997
tp4324
a(I403203
I403538
tp4325
a(I418949
I419119
tp4326
a(I469085
I470324
tp4327
a(I553158
I554109
tp4328
a(I598283
I598600
tp4329
a(I633207
I633607
tp4330
a(I661626
I661934
tp4331
a(I729852
I731100
tp4332
a(I798526
I799196
tp4333
a(I845334
I845783
tp4334
a(I894875
I895329
tp4335
a(I954196
I954968
tp4336
a(I1003876
I1004461
tp4337
a(I1047437
I1048090
tp4338
a(I1081358
I1081567
tp4339
a(I1135304
I1136200
tp4340
a(I1190920
I1191440
tp4341
a(I1245681
I1246326
tp4342
a(I1300766
I1301257
tp4343
a(I1328908
I1329121
tp4344
a(I1383594
I1384435
tp4345
a(I1423857
I1424041
tp4346
a(I1450475
I1450773
tp4347
a(I1470718
I1470918
tp4348
a(I1514149
I1515013
tp4349
a(I1560759
I1561161
tp4350
a(I1579452
I1579790
tp4351
a(I1666158
I1667852
tp4352
a(I1759585
I1760521
tp4353
a(I1819957
I1820478
tp4354
a(I1857521
I1858001
tp4355
a(I1924096
I1925042
tp4356
a(I1961325
I1961524
tp4357
a(I2002528
I2003108
tp4358
a(I2033695
I2033893
tp4359
a(I2078507
I2079160
tp4360
a(I2187540
I2189245
tp4361
a(I2259843
I2260300
tp4362
a(I2314930
I2315694
tp4363
a(I2346057
I2346181
tp4364
a(I2379359
I2380052
tp4365
a(I2430950
I2431552
tp4366
a(I2473374
I2473623
tp4367
a(I2489963
I2490093
tp4368
aa(lp4369
(I8314
I8512
tp4370
a(I56152
I56762
tp4371
a(I104305
I104737
tp4372
a(I143441
I144112
tp4373
a(I249863
I252452
tp4374
a(I334832
I335400
tp4375
a(I373997
I374429
tp4376
a(I403538
I403863
tp4377
a(I419119
I419297
tp4378
a(I470324
I471579
tp4379
a(I554109
I555089
tp4380
a(I598600
I598919
tp4381
a(I633607
I633995
tp4382
a(I661934
I662225
tp4383
a(I731100
I732375
tp4384
a(I799196
I799870
tp4385
a(I845783
I846230
tp4386
a(I895329
I895792
tp4387
a(I954968
I955719
tp4388
a(I1004461
I1005044
tp4389
a(I1048090
I1048718
tp4390
a(I1081567
I1081768
tp4391
a(I1136200
I1137162
tp4392
a(I1191440
I1191967
tp4393
a(I1246326
I1246958
tp4394
a(I1301257
I1301772
tp4395
a(I1329121
I1329333
tp4396
a(I1384435
I1385276
tp4397
a(I1424041
I1424220
tp4398
a(I1450773
I1451083
tp4399
a(I1470918
I1471108
tp4400
a(I1515013
I1515916
tp4401
a(I1561161
I1561557
tp4402
a(I1579790
I1580139
tp4403
a(I1667852
I1669608
tp4404
a(I1760521
I1761483
tp4405
a(I1820478
I1821008
tp4406
a(I1858001
I1858491
tp4407
a(I1925042
I1925991
tp4408
a(I1961524
I1961716
tp4409
a(I2003108
I2003696
tp4410
a(I2033893
I2034099
tp4411
a(I2079160
I2079846
tp4412
a(I2189245
I2190987
tp4413
a(I2260300
I2260790
tp4414
a(I2315694
I2316472
tp4415
a(I2346181
I2346326
tp4416
a(I2380052
I2380737
tp4417
a(I2431552
I2432161
tp4418
a(I2473623
I2473884
tp4419
a(I2490093
I2490222
tp4420
aa(lp4421
(I8512
I8707
tp4422
a(I56762
I57398
tp4423
a(I104737
I105177
tp4424
a(I144112
I144799
tp4425
a(I252452
I254929
tp4426
a(I335400
I335992
tp4427
a(I374429
I374873
tp4428
a(I403863
I404157
tp4429
a(I419297
I419479
tp4430
a(I471579
I472834
tp4431
a(I555089
I556092
tp4432
a(I598919
I599230
tp4433
a(I633995
I634393
tp4434
a(I662225
I662545
tp4435
a(I732375
I733633
tp4436
a(I799870
I800565
tp4437
a(I846230
I846675
tp4438
a(I895792
I896255
tp4439
a(I955719
I956466
tp4440
a(I1005044
I1005628
tp4441
a(I1048718
I1049382
tp4442
a(I1081768
I1081968
tp4443
a(I1137162
I1138101
tp4444
a(I1191967
I1192498
tp4445
a(I1246958
I1247620
tp4446
a(I1301772
I1302277
tp4447
a(I1329333
I1329534
tp4448
a(I1385276
I1386139
tp4449
a(I1424220
I1424397
tp4450
a(I1451083
I1451404
tp4451
a(I1471108
I1471314
tp4452
a(I1515916
I1516797
tp4453
a(I1561557
I1561943
tp4454
a(I1580139
I1580504
tp4455
a(I1669608
I1671357
tp4456
a(I1761483
I1762444
tp4457
a(I1821008
I1821552
tp4458
a(I1858491
I1858997
tp4459
a(I1925991
I1926944
tp4460
a(I1961716
I1961915
tp4461
a(I2003696
I2004268
tp4462
a(I2034099
I2034297
tp4463
a(I2079846
I2080557
tp4464
a(I2190987
I2192769
tp4465
a(I2260790
I2261280
tp4466
a(I2316472
I2317270
tp4467
a(I2346326
I2346463
tp4468
a(I2380737
I2381439
tp4469
a(I2432161
I2432746
tp4470
a(I2473884
I2474146
tp4471
a(I2490222
I2490354
tp4472
aa(lp4473
(I8707
I8904
tp4474
a(I57398
I58055
tp4475
a(I105177
I105635
tp4476
a(I144799
I145508
tp4477
a(I254929
I257410
tp4478
a(I335992
I336608
tp4479
a(I374873
I375304
tp4480
a(I404157
I404436
tp4481
a(I419479
I419650
tp4482
a(I472834
I474159
tp4483
a(I556092
I557082
tp4484
a(I599230
I599521
tp4485
a(I634393
I634816
tp4486
a(I662545
I662867
tp4487
a(I733633
I734900
tp4488
a(I800565
I801266
tp4489
a(I846675
I847137
tp4490
a(I896255
I896727
tp4491
a(I956466
I957225
tp4492
a(I1005628
I1006209
tp4493
a(I1049382
I1050027
tp4494
a(I1081968
I1082166
tp4495
a(I1138101
I1139061
tp4496
a(I1192498
I1193042
tp4497
a(I1247620
I1248289
tp4498
a(I1302277
I1302821
tp4499
a(I1329534
I1329748
tp4500
a(I1386139
I1387034
tp4501
a(I1424397
I1424575
tp4502
a(I1451404
I1451726
tp4503
a(I1471314
I1471511
tp4504
a(I1516797
I1517695
tp4505
a(I1561943
I1562349
tp4506
a(I1580504
I1580881
tp4507
a(I1671357
I1673140
tp4508
a(I1762444
I1763414
tp4509
a(I1821552
I1822083
tp4510
a(I1858997
I1859533
tp4511
a(I1926944
I1927887
tp4512
a(I1961915
I1962116
tp4513
a(I2004268
I2004825
tp4514
a(I2034297
I2034494
tp4515
a(I2080557
I2081250
tp4516
a(I2192769
I2194547
tp4517
a(I2261280
I2261805
tp4518
a(I2317270
I2318053
tp4519
a(I2346463
I2346599
tp4520
a(I2381439
I2382171
tp4521
a(I2432746
I2433348
tp4522
a(I2474146
I2474401
tp4523
a(I2490354
I2490501
tp4524
aa(lp4525
(I8904
I9096
tp4526
a(I58055
I58699
tp4527
a(I105635
I106133
tp4528
a(I145508
I146236
tp4529
a(I257410
I259860
tp4530
a(I336608
I337209
tp4531
a(I375304
I375751
tp4532
a(I404436
I404719
tp4533
a(I419650
I419832
tp4534
a(I474159
I475505
tp4535
a(I557082
I558147
tp4536
a(I599521
I599816
tp4537
a(I634816
I635240
tp4538
a(I662867
I663194
tp4539
a(I734900
I736188
tp4540
a(I801266
I802006
tp4541
a(I847137
I847608
tp4542
a(I896727
I897202
tp4543
a(I957225
I958006
tp4544
a(I1006209
I1006820
tp4545
a(I1050027
I1050700
tp4546
a(I1082166
I1082378
tp4547
a(I1139061
I1140049
tp4548
a(I1193042
I1193621
tp4549
a(I1248289
I1248974
tp4550
a(I1302821
I1303352
tp4551
a(I1329748
I1329961
tp4552
a(I1387034
I1387975
tp4553
a(I1424575
I1424762
tp4554
a(I1451726
I1452058
tp4555
a(I1471511
I1471710
tp4556
a(I1517695
I1518626
tp4557
a(I1562349
I1562763
tp4558
a(I1580881
I1581276
tp4559
a(I1673140
I1674910
tp4560
a(I1763414
I1764402
tp4561
a(I1822083
I1822649
tp4562
a(I1859533
I1860069
tp4563
a(I1927887
I1928854
tp4564
a(I1962116
I1962307
tp4565
a(I2004825
I2005422
tp4566
a(I2034494
I2034694
tp4567
a(I2081250
I2081968
tp4568
a(I2194547
I2196389
tp4569
a(I2261805
I2262363
tp4570
a(I2318053
I2318840
tp4571
a(I2346599
I2346743
tp4572
a(I2382171
I2382928
tp4573
a(I2433348
I2433967
tp4574
a(I2474401
I2474674
tp4575
a(I2490501
I2490644
tp4576
aa(lp4577
(I9096
I9293
tp4578
a(I58699
I59381
tp4579
a(I106133
I106606
tp4580
a(I146236
I146993
tp4581
a(I259860
I262293
tp4582
a(I337209
I337857
tp4583
a(I375751
I376206
tp4584
a(I404719
I405004
tp4585
a(I419832
I420005
tp4586
a(I475505
I476886
tp4587
a(I558147
I559257
tp4588
a(I599816
I600104
tp4589
a(I635240
I635670
tp4590
a(I663194
I663524
tp4591
a(I736188
I737531
tp4592
a(I802006
I802761
tp4593
a(I847608
I848076
tp4594
a(I897202
I897690
tp4595
a(I958006
I958831
tp4596
a(I1006820
I1007442
tp4597
a(I1050700
I1051402
tp4598
a(I1082378
I1082587
tp4599
a(I1140049
I1141111
tp4600
a(I1193621
I1194207
tp4601
a(I1248974
I1249688
tp4602
a(I1303352
I1303925
tp4603
a(I1329961
I1330191
tp4604
a(I1387975
I1388945
tp4605
a(I1424762
I1424940
tp4606
a(I1452058
I1452408
tp4607
a(I1471710
I1471918
tp4608
a(I1518626
I1519576
tp4609
a(I1562763
I1563185
tp4610
a(I1581276
I1581694
tp4611
a(I1674910
I1676755
tp4612
a(I1764402
I1765442
tp4613
a(I1822649
I1823224
tp4614
a(I1860069
I1860632
tp4615
a(I1928854
I1929865
tp4616
a(I1962307
I1962515
tp4617
a(I2005422
I2006046
tp4618
a(I2034694
I2034900
tp4619
a(I2081968
I2082723
tp4620
a(I2196389
I2198273
tp4621
a(I2262363
I2262904
tp4622
a(I2318840
I2319699
tp4623
a(I2346743
I2346885
tp4624
a(I2382928
I2383690
tp4625
a(I2433967
I2434570
tp4626
a(I2474674
I2474939
tp4627
a(I2490644
I2490788
tp4628
aa(lp4629
(I9293
I9502
tp4630
a(I59381
I60064
tp4631
a(I106606
I107089
tp4632
a(I146993
I147763
tp4633
a(I262293
I264756
tp4634
a(I337857
I338542
tp4635
a(I376206
I376647
tp4636
a(I405004
I405279
tp4637
a(I420005
I420197
tp4638
a(I476886
I478331
tp4639
a(I559257
I560397
tp4640
a(I600104
I600392
tp4641
a(I635670
I636121
tp4642
a(I663524
I663864
tp4643
a(I737531
I738872
tp4644
a(I802761
I803550
tp4645
a(I848076
I848568
tp4646
a(I897690
I898200
tp4647
a(I958831
I959649
tp4648
a(I1007442
I1008095
tp4649
a(I1051402
I1052108
tp4650
a(I1082587
I1082798
tp4651
a(I1141111
I1142180
tp4652
a(I1194207
I1194833
tp4653
a(I1249688
I1250399
tp4654
a(I1303925
I1304493
tp4655
a(I1330191
I1330412
tp4656
a(I1388945
I1389918
tp4657
a(I1424940
I1425118
tp4658
a(I1452408
I1452767
tp4659
a(I1471918
I1472124
tp4660
a(I1519576
I1520509
tp4661
a(I1563185
I1563592
tp4662
a(I1581694
I1582128
tp4663
a(I1676755
I1678569
tp4664
a(I1765442
I1766485
tp4665
a(I1823224
I1823805
tp4666
a(I1860632
I1861200
tp4667
a(I1929865
I1930862
tp4668
a(I1962515
I1962712
tp4669
a(I2006046
I2006677
tp4670
a(I2034900
I2035118
tp4671
a(I2082723
I2083488
tp4672
a(I2198273
I2200269
tp4673
a(I2262904
I2263516
tp4674
a(I2319699
I2320535
tp4675
a(I2346885
I2347022
tp4676
a(I2383690
I2384487
tp4677
a(I2434570
I2435205
tp4678
a(I2474939
I2475210
tp4679
a(I2490788
I2490932
tp4680
aa(lp4681
(I9502
I9706
tp4682
a(I60064
I60755
tp4683
a(I107089
I107603
tp4684
a(I147763
I148571
tp4685
a(I264756
I267272
tp4686
a(I338542
I339232
tp4687
a(I376647
I377105
tp4688
a(I405279
I405579
tp4689
a(I420197
I420393
tp4690
a(I478331
I479794
tp4691
a(I560397
I561599
tp4692
a(I600392
I600687
tp4693
a(I636121
I636586
tp4694
a(I663864
I664225
tp4695
a(I738872
I740256
tp4696
a(I803550
I804351
tp4697
a(I848568
I849084
tp4698
a(I898200
I898739
tp4699
a(I959649
I960494
tp4700
a(I1008095
I1008749
tp4701
a(I1052108
I1052846
tp4702
a(I1082798
I1083015
tp4703
a(I1142180
I1143273
tp4704
a(I1194833
I1195482
tp4705
a(I1250399
I1251148
tp4706
a(I1304493
I1305070
tp4707
a(I1330412
I1330654
tp4708
a(I1389918
I1390954
tp4709
a(I1425118
I1425309
tp4710
a(I1452767
I1453128
tp4711
a(I1472124
I1472331
tp4712
a(I1520509
I1521466
tp4713
a(I1563592
I1564005
tp4714
a(I1582128
I1582563
tp4715
a(I1678569
I1680435
tp4716
a(I1766485
I1767577
tp4717
a(I1823805
I1824399
tp4718
a(I1861200
I1861750
tp4719
a(I1930862
I1931927
tp4720
a(I1962712
I1962926
tp4721
a(I2006677
I2007326
tp4722
a(I2035118
I2035327
tp4723
a(I2083488
I2084292
tp4724
a(I2200269
I2202325
tp4725
a(I2263516
I2264123
tp4726
a(I2320535
I2321444
tp4727
a(I2347022
I2347167
tp4728
a(I2384487
I2385302
tp4729
a(I2435205
I2435854
tp4730
a(I2475210
I2475505
tp4731
a(I2490932
I2491064
tp4732
aa(lp4733
(I9706
I9911
tp4734
a(I60755
I61437
tp4735
a(I107603
I108123
tp4736
a(I148571
I149374
tp4737
a(I267272
I269814
tp4738
a(I339232
I339932
tp4739
a(I377105
I377582
tp4740
a(I405579
I405851
tp4741
a(I420393
I420585
tp4742
a(I479794
I481271
tp4743
a(I561599
I562802
tp4744
a(I600687
I600964
tp4745
a(I636586
I637057
tp4746
a(I664225
I664578
tp4747
a(I740256
I741663
tp4748
a(I804351
I805168
tp4749
a(I849084
I849588
tp4750
a(I898739
I899269
tp4751
a(I960494
I961314
tp4752
a(I1008749
I1009432
tp4753
a(I1052846
I1053572
tp4754
a(I1083015
I1083244
tp4755
a(I1143273
I1144405
tp4756
a(I1195482
I1196147
tp4757
a(I1251148
I1251911
tp4758
a(I1305070
I1305653
tp4759
a(I1330654
I1330887
tp4760
a(I1390954
I1392005
tp4761
a(I1425309
I1425493
tp4762
a(I1453128
I1453501
tp4763
a(I1472331
I1472545
tp4764
a(I1521466
I1522478
tp4765
a(I1564005
I1564418
tp4766
a(I1582563
I1582999
tp4767
a(I1680435
I1682333
tp4768
a(I1767577
I1768693
tp4769
a(I1824399
I1824998
tp4770
a(I1861750
I1862317
tp4771
a(I1931927
I1932986
tp4772
a(I1962926
I1963149
tp4773
a(I2007326
I2007976
tp4774
a(I2035327
I2035543
tp4775
a(I2084292
I2085076
tp4776
a(I2202325
I2204467
tp4777
a(I2264123
I2264768
tp4778
a(I2321444
I2322354
tp4779
a(I2347167
I2347311
tp4780
a(I2385302
I2386110
tp4781
a(I2435854
I2436535
tp4782
a(I2475505
I2475788
tp4783
a(I2491064
I2491202
tp4784
aa(lp4785
(I9911
I10106
tp4786
a(I61437
I62114
tp4787
a(I108123
I108641
tp4788
a(I149374
I150201
tp4789
a(I269814
I272366
tp4790
a(I339932
I340675
tp4791
a(I377582
I378056
tp4792
a(I405851
I406133
tp4793
a(I420585
I420796
tp4794
a(I481271
I482821
tp4795
a(I562802
I564012
tp4796
a(I600964
I601263
tp4797
a(I637057
I637548
tp4798
a(I664578
I664962
tp4799
a(I741663
I743062
tp4800
a(I805168
I805981
tp4801
a(I849588
I850123
tp4802
a(I899269
I899828
tp4803
a(I961314
I962136
tp4804
a(I1009432
I1010141
tp4805
a(I1053572
I1054319
tp4806
a(I1083244
I1083475
tp4807
a(I1144405
I1145532
tp4808
a(I1196147
I1196833
tp4809
a(I1251911
I1252687
tp4810
a(I1305653
I1306225
tp4811
a(I1330887
I1331122
tp4812
a(I1392005
I1393059
tp4813
a(I1425493
I1425693
tp4814
a(I1453501
I1453891
tp4815
a(I1472545
I1472769
tp4816
a(I1522478
I1523473
tp4817
a(I1564418
I1564859
tp4818
a(I1582999
I1583455
tp4819
a(I1682333
I1684207
tp4820
a(I1768693
I1769819
tp4821
a(I1824998
I1825623
tp4822
a(I1862317
I1862889
tp4823
a(I1932986
I1934059
tp4824
a(I1963149
I1963358
tp4825
a(I2007976
I2008634
tp4826
a(I2035543
I2035764
tp4827
a(I2085076
I2085878
tp4828
a(I2204467
I2206634
tp4829
a(I2264768
I2265418
tp4830
a(I2322354
I2323269
tp4831
a(I2347311
I2347459
tp4832
a(I2386110
I2386944
tp4833
a(I2436535
I2437217
tp4834
a(I2475788
I2476077
tp4835
a(I2491202
I2491346
tp4836
aa(lp4837
(I10106
I10323
tp4838
a(I62114
I62827
tp4839
a(I108641
I109156
tp4840
a(I150201
I151059
tp4841
a(I272366
I274993
tp4842
a(I340675
I341438
tp4843
a(I378056
I378522
tp4844
a(I406133
I406406
tp4845
a(I420796
I421008
tp4846
a(I482821
I484447
tp4847
a(I564012
I565281
tp4848
a(I601263
I601564
tp4849
a(I637548
I638042
tp4850
a(I664962
I665347
tp4851
a(I743062
I744473
tp4852
a(I805981
I806820
tp4853
a(I850123
I850657
tp4854
a(I899828
I900400
tp4855
a(I962136
I962958
tp4856
a(I1010141
I1010860
tp4857
a(I1054319
I1055093
tp4858
a(I1083475
I1083712
tp4859
a(I1145532
I1146693
tp4860
a(I1196833
I1197536
tp4861
a(I1252687
I1253498
tp4862
a(I1306225
I1306824
tp4863
a(I1331122
I1331359
tp4864
a(I1393059
I1394108
tp4865
a(I1425693
I1425886
tp4866
a(I1453891
I1454300
tp4867
a(I1472769
I1472988
tp4868
a(I1523473
I1524528
tp4869
a(I1564859
I1565280
tp4870
a(I1583455
I1583930
tp4871
a(I1684207
I1686140
tp4872
a(I1769819
I1770998
tp4873
a(I1825623
I1826268
tp4874
a(I1862889
I1863496
tp4875
a(I1934059
I1935189
tp4876
a(I1963358
I1963589
tp4877
a(I2008634
I2009313
tp4878
a(I2035764
I2035990
tp4879
a(I2085878
I2086672
tp4880
a(I2206634
I2208829
tp4881
a(I2265418
I2266066
tp4882
a(I2323269
I2324210
tp4883
a(I2347459
I2347593
tp4884
a(I2386944
I2387784
tp4885
a(I2437217
I2437912
tp4886
a(I2476077
I2476382
tp4887
a(I2491346
I2491513
tp4888
aa(lp4889
(I10323
I10529
tp4890
a(I62827
I63538
tp4891
a(I109156
I109691
tp4892
a(I151059
I151971
tp4893
a(I274993
I277674
tp4894
a(I341438
I342204
tp4895
a(I378522
I379020
tp4896
a(I406406
I406686
tp4897
a(I421008
I421212
tp4898
a(I484447
I486113
tp4899
a(I565281
I566596
tp4900
a(I601564
I601878
tp4901
a(I638042
I638554
tp4902
a(I665347
I665755
tp4903
a(I744473
I745932
tp4904
a(I806820
I807700
tp4905
a(I850657
I851209
tp4906
a(I900400
I901092
tp4907
a(I962958
I963803
tp4908
a(I1010860
I1011573
tp4909
a(I1055093
I1055876
tp4910
a(I1083712
I1083948
tp4911
a(I1146693
I1147874
tp4912
a(I1197536
I1198268
tp4913
a(I1253498
I1254307
tp4914
a(I1306824
I1307426
tp4915
a(I1331359
I1331615
tp4916
a(I1394108
I1395183
tp4917
a(I1425886
I1426077
tp4918
a(I1454300
I1454717
tp4919
a(I1472988
I1473216
tp4920
a(I1524528
I1525601
tp4921
a(I1565280
I1565710
tp4922
a(I1583930
I1584411
tp4923
a(I1686140
I1688057
tp4924
a(I1770998
I1772189
tp4925
a(I1826268
I1826925
tp4926
a(I1863496
I1864086
tp4927
a(I1935189
I1936369
tp4928
a(I1963589
I1963807
tp4929
a(I2009313
I2009998
tp4930
a(I2035990
I2036231
tp4931
a(I2086672
I2087515
tp4932
a(I2208829
I2211116
tp4933
a(I2266066
I2266731
tp4934
a(I2324210
I2325214
tp4935
a(I2347593
I2347741
tp4936
a(I2387784
I2388645
tp4937
a(I2437912
I2438655
tp4938
a(I2476382
I2476693
tp4939
a(I2491513
I2491666
tp4940
aa(lp4941
(I10529
I10745
tp4942
a(I63538
I64257
tp4943
a(I109691
I110257
tp4944
a(I151971
I152898
tp4945
a(I277674
I280449
tp4946
a(I342204
I342988
tp4947
a(I379020
I379521
tp4948
a(I406686
I406942
tp4949
a(I421212
I421423
tp4950
a(I486113
I487872
tp4951
a(I566596
I567958
tp4952
a(I601878
I602179
tp4953
a(I638554
I639085
tp4954
a(I665755
I666165
tp4955
a(I745932
I747418
tp4956
a(I807700
I808584
tp4957
a(I851209
I851775
tp4958
a(I901092
I901689
tp4959
a(I963803
I964608
tp4960
a(I1011573
I1012293
tp4961
a(I1055876
I1056684
tp4962
a(I1083948
I1084196
tp4963
a(I1147874
I1149035
tp4964
a(I1198268
I1199013
tp4965
a(I1254307
I1255154
tp4966
a(I1307426
I1308032
tp4967
a(I1331615
I1331862
tp4968
a(I1395183
I1396338
tp4969
a(I1426077
I1426288
tp4970
a(I1454717
I1455130
tp4971
a(I1473216
I1473453
tp4972
a(I1525601
I1526687
tp4973
a(I1565710
I1566130
tp4974
a(I1584411
I1584934
tp4975
a(I1688057
I1690035
tp4976
a(I1772189
I1773405
tp4977
a(I1826925
I1827585
tp4978
a(I1864086
I1864717
tp4979
a(I1936369
I1937576
tp4980
a(I1963807
I1964030
tp4981
a(I2009998
I2010714
tp4982
a(I2036231
I2036479
tp4983
a(I2087515
I2088407
tp4984
a(I2211116
I2213507
tp4985
a(I2266731
I2267427
tp4986
a(I2325214
I2326244
tp4987
a(I2347741
I2347896
tp4988
a(I2388645
I2389564
tp4989
a(I2438655
I2439401
tp4990
a(I2476693
I2477029
tp4991
a(I2491666
I2491837
tp4992
aa(lp4993
(I10745
I10962
tp4994
a(I64257
I65014
tp4995
a(I110257
I110832
tp4996
a(I152898
I153889
tp4997
a(I280449
I283316
tp4998
a(I342988
I343801
tp4999
a(I379521
I380053
tp5000
a(I406942
I407234
tp5001
a(I421423
I421646
tp5002
a(I487872
I489719
tp5003
a(I567958
I569383
tp5004
a(I602179
I602508
tp5005
a(I639085
I639647
tp5006
a(I666165
I666594
tp5007
a(I747418
I748946
tp5008
a(I808584
I809513
tp5009
a(I851775
I852367
tp5010
a(I901689
I902318
tp5011
a(I964608
I965455
tp5012
a(I1012293
I1013067
tp5013
a(I1056684
I1057547
tp5014
a(I1084196
I1084439
tp5015
a(I1149035
I1150243
tp5016
a(I1199013
I1199820
tp5017
a(I1255154
I1256042
tp5018
a(I1308032
I1308682
tp5019
a(I1331862
I1332131
tp5020
a(I1396338
I1397513
tp5021
a(I1426288
I1426500
tp5022
a(I1455130
I1455581
tp5023
a(I1473453
I1473696
tp5024
a(I1526687
I1527793
tp5025
a(I1566130
I1566586
tp5026
a(I1584934
I1585479
tp5027
a(I1690035
I1692047
tp5028
a(I1773405
I1774660
tp5029
a(I1827585
I1828302
tp5030
a(I1864717
I1865371
tp5031
a(I1937576
I1938845
tp5032
a(I1964030
I1964267
tp5033
a(I2010714
I2011464
tp5034
a(I2036479
I2036734
tp5035
a(I2088407
I2089339
tp5036
a(I2213507
I2215913
tp5037
a(I2267427
I2268150
tp5038
a(I2326244
I2327333
tp5039
a(I2347896
I2348041
tp5040
a(I2389564
I2390516
tp5041
a(I2439401
I2440181
tp5042
a(I2477029
I2477350
tp5043
a(I2491837
I2492018
tp5044
aa(lp5045
(I10962
I11189
tp5046
a(I65014
I65785
tp5047
a(I110832
I111451
tp5048
a(I153889
I154902
tp5049
a(I283316
I286284
tp5050
a(I343801
I344645
tp5051
a(I380053
I380578
tp5052
a(I407234
I407525
tp5053
a(I421646
I421878
tp5054
a(I489719
I491575
tp5055
a(I569383
I570858
tp5056
a(I602508
I602824
tp5057
a(I639647
I640212
tp5058
a(I666594
I667040
tp5059
a(I748946
I750517
tp5060
a(I809513
I810493
tp5061
a(I852367
I852973
tp5062
a(I902318
I902952
tp5063
a(I965455
I966339
tp5064
a(I1013067
I1013850
tp5065
a(I1057547
I1058413
tp5066
a(I1084439
I1084682
tp5067
a(I1150243
I1151450
tp5068
a(I1199820
I1200656
tp5069
a(I1256042
I1256950
tp5070
a(I1308682
I1309355
tp5071
a(I1332131
I1332396
tp5072
a(I1397513
I1398783
tp5073
a(I1426500
I1426727
tp5074
a(I1455581
I1456044
tp5075
a(I1473696
I1473940
tp5076
a(I1527793
I1528926
tp5077
a(I1566586
I1567050
tp5078
a(I1585479
I1586046
tp5079
a(I1692047
I1694130
tp5080
a(I1774660
I1775972
tp5081
a(I1828302
I1829035
tp5082
a(I1865371
I1866049
tp5083
a(I1938845
I1940105
tp5084
a(I1964267
I1964496
tp5085
a(I2011464
I2012230
tp5086
a(I2036734
I2036997
tp5087
a(I2089339
I2090304
tp5088
a(I2215913
I2218435
tp5089
a(I2268150
I2268905
tp5090
a(I2327333
I2328440
tp5091
a(I2348041
I2348189
tp5092
a(I2390516
I2391499
tp5093
a(I2440181
I2440997
tp5094
a(I2477350
I2477679
tp5095
a(I2492018
I2492195
tp5096
aa(lp5097
(I11189
I11426
tp5098
a(I65785
I66573
tp5099
a(I111451
I112037
tp5100
a(I154902
I155937
tp5101
a(I286284
I289195
tp5102
a(I344645
I345505
tp5103
a(I380578
I381115
tp5104
a(I407525
I407798
tp5105
a(I421878
I422099
tp5106
a(I491575
I493413
tp5107
a(I570858
I572319
tp5108
a(I602824
I603153
tp5109
a(I640212
I640788
tp5110
a(I667040
I667488
tp5111
a(I750517
I752084
tp5112
a(I810493
I811467
tp5113
a(I852973
I853590
tp5114
a(I902952
I903602
tp5115
a(I966339
I967228
tp5116
a(I1013850
I1014648
tp5117
a(I1058413
I1059301
tp5118
a(I1084682
I1084929
tp5119
a(I1151450
I1152692
tp5120
a(I1200656
I1201472
tp5121
a(I1256950
I1257877
tp5122
a(I1309355
I1310030
tp5123
a(I1332396
I1332675
tp5124
a(I1398783
I1400043
tp5125
a(I1426727
I1426947
tp5126
a(I1456044
I1456497
tp5127
a(I1473940
I1474177
tp5128
a(I1528926
I1530083
tp5129
a(I1567050
I1567514
tp5130
a(I1586046
I1586601
tp5131
a(I1694130
I1696227
tp5132
a(I1775972
I1777301
tp5133
a(I1829035
I1829817
tp5134
a(I1866049
I1866745
tp5135
a(I1940105
I1941407
tp5136
a(I1964496
I1964724
tp5137
a(I2012230
I2013004
tp5138
a(I2036997
I2037251
tp5139
a(I2090304
I2091279
tp5140
a(I2218435
I2221009
tp5141
a(I2268905
I2269677
tp5142
a(I2328440
I2329536
tp5143
a(I2348189
I2348332
tp5144
a(I2391499
I2392527
tp5145
a(I2440997
I2441824
tp5146
a(I2477679
I2478012
tp5147
a(I2492195
I2492372
tp5148
aa(lp5149
(I11426
I11663
tp5150
a(I66573
I67366
tp5151
a(I112037
I112638
tp5152
a(I155937
I156943
tp5153
a(I289195
I292121
tp5154
a(I345505
I346354
tp5155
a(I381115
I381646
tp5156
a(I407798
I408067
tp5157
a(I422099
I422318
tp5158
a(I493413
I495265
tp5159
a(I572319
I573782
tp5160
a(I603153
I603454
tp5161
a(I640788
I641367
tp5162
a(I667488
I667947
tp5163
a(I752084
I753663
tp5164
a(I811467
I812477
tp5165
a(I853590
I854232
tp5166
a(I903602
I904287
tp5167
a(I967228
I968139
tp5168
a(I1014648
I1015442
tp5169
a(I1059301
I1060181
tp5170
a(I1084929
I1085186
tp5171
a(I1152692
I1153909
tp5172
a(I1201472
I1202294
tp5173
a(I1257877
I1258807
tp5174
a(I1310030
I1310684
tp5175
a(I1332675
I1332959
tp5176
a(I1400043
I1401347
tp5177
a(I1426947
I1427171
tp5178
a(I1456497
I1456964
tp5179
a(I1474177
I1474409
tp5180
a(I1530083
I1531219
tp5181
a(I1567514
I1567980
tp5182
a(I1586601
I1587161
tp5183
a(I1696227
I1698329
tp5184
a(I1777301
I1778625
tp5185
a(I1829817
I1830595
tp5186
a(I1866745
I1867430
tp5187
a(I1941407
I1942709
tp5188
a(I1964724
I1964943
tp5189
a(I2013004
I2013762
tp5190
a(I2037251
I2037511
tp5191
a(I2091279
I2092274
tp5192
a(I2221009
I2223606
tp5193
a(I2269677
I2270472
tp5194
a(I2329536
I2330649
tp5195
a(I2348332
I2348476
tp5196
a(I2392527
I2393580
tp5197
a(I2441824
I2442647
tp5198
a(I2478012
I2478364
tp5199
a(I2492372
I2492555
tp5200
aa(lp5201
(I11663
I11903
tp5202
a(I67366
I68173
tp5203
a(I112638
I113232
tp5204
a(I156943
I157928
tp5205
a(I292121
I295031
tp5206
a(I346354
I347206
tp5207
a(I381646
I382164
tp5208
a(I408067
I408330
tp5209
a(I422318
I422536
tp5210
a(I495265
I497110
tp5211
a(I573782
I575198
tp5212
a(I603454
I603773
tp5213
a(I641367
I641939
tp5214
a(I667947
I668395
tp5215
a(I753663
I755218
tp5216
a(I812477
I813461
tp5217
a(I854232
I854876
tp5218
a(I904287
I904950
tp5219
a(I968139
I969029
tp5220
a(I1015442
I1016226
tp5221
a(I1060181
I1061036
tp5222
a(I1085186
I1085431
tp5223
a(I1153909
I1155130
tp5224
a(I1202294
I1203137
tp5225
a(I1258807
I1259721
tp5226
a(I1310684
I1311287
tp5227
a(I1332959
I1333241
tp5228
a(I1401347
I1402609
tp5229
a(I1427171
I1427409
tp5230
a(I1456964
I1457423
tp5231
a(I1474409
I1474659
tp5232
a(I1531219
I1532335
tp5233
a(I1567980
I1568443
tp5234
a(I1587161
I1587732
tp5235
a(I1698329
I1700449
tp5236
a(I1778625
I1779956
tp5237
a(I1830595
I1831351
tp5238
a(I1867430
I1868102
tp5239
a(I1942709
I1944023
tp5240
a(I1964943
I1965163
tp5241
a(I2013762
I2014517
tp5242
a(I2037511
I2037783
tp5243
a(I2092274
I2093239
tp5244
a(I2223606
I2226181
tp5245
a(I2270472
I2271228
tp5246
a(I2330649
I2331764
tp5247
a(I2348476
I2348625
tp5248
a(I2393580
I2394623
tp5249
a(I2442647
I2443494
tp5250
a(I2478364
I2478694
tp5251
a(I2492555
I2492729
tp5252
aa(lp5253
(I11903
I12143
tp5254
a(I68173
I68952
tp5255
a(I113232
I113842
tp5256
a(I157928
I158915
tp5257
a(I295031
I297916
tp5258
a(I347206
I348039
tp5259
a(I382164
I382687
tp5260
a(I408330
I408588
tp5261
a(I422536
I422759
tp5262
a(I497110
I498946
tp5263
a(I575198
I576589
tp5264
a(I603773
I604108
tp5265
a(I641939
I642508
tp5266
a(I668395
I668837
tp5267
a(I755218
I756768
tp5268
a(I813461
I814446
tp5269
a(I854876
I855498
tp5270
a(I904950
I905620
tp5271
a(I969029
I969899
tp5272
a(I1016226
I1017032
tp5273
a(I1061036
I1061916
tp5274
a(I1085431
I1085696
tp5275
a(I1155130
I1156332
tp5276
a(I1203137
I1203958
tp5277
a(I1259721
I1260645
tp5278
a(I1311287
I1311879
tp5279
a(I1333241
I1333503
tp5280
a(I1402609
I1403862
tp5281
a(I1427409
I1427653
tp5282
a(I1457423
I1457882
tp5283
a(I1474659
I1474899
tp5284
a(I1532335
I1533446
tp5285
a(I1568443
I1568881
tp5286
a(I1587732
I1588284
tp5287
a(I1700449
I1702520
tp5288
a(I1779956
I1781254
tp5289
a(I1831351
I1832097
tp5290
a(I1868102
I1868776
tp5291
a(I1944023
I1945349
tp5292
a(I1965163
I1965390
tp5293
a(I2014517
I2015244
tp5294
a(I2037783
I2038045
tp5295
a(I2093239
I2094223
tp5296
a(I2226181
I2228751
tp5297
a(I2271228
I2271974
tp5298
a(I2331764
I2332841
tp5299
a(I2348625
I2348763
tp5300
a(I2394623
I2395670
tp5301
a(I2443494
I2444330
tp5302
a(I2478694
I2479036
tp5303
a(I2492729
I2492895
tp5304
aa(lp5305
(I12143
I12395
tp5306
a(I68952
I69696
tp5307
a(I113842
I114437
tp5308
a(I158915
I159905
tp5309
a(I297916
I300820
tp5310
a(I348039
I348893
tp5311
a(I382687
I383198
tp5312
a(I408588
I408860
tp5313
a(I422759
I422982
tp5314
a(I498946
I500783
tp5315
a(I576589
I577968
tp5316
a(I604108
I604431
tp5317
a(I642508
I643105
tp5318
a(I668837
I669284
tp5319
a(I756768
I758304
tp5320
a(I814446
I815432
tp5321
a(I855498
I856122
tp5322
a(I905620
I906301
tp5323
a(I969899
I970803
tp5324
a(I1017032
I1017837
tp5325
a(I1061916
I1062808
tp5326
a(I1085696
I1085963
tp5327
a(I1156332
I1157520
tp5328
a(I1203958
I1204806
tp5329
a(I1260645
I1261543
tp5330
a(I1311879
I1312481
tp5331
a(I1333503
I1333780
tp5332
a(I1403862
I1405113
tp5333
a(I1427653
I1427914
tp5334
a(I1457882
I1458346
tp5335
a(I1474899
I1475136
tp5336
a(I1533446
I1534559
tp5337
a(I1568881
I1569353
tp5338
a(I1588284
I1588837
tp5339
a(I1702520
I1704596
tp5340
a(I1781254
I1782612
tp5341
a(I1832097
I1832856
tp5342
a(I1868776
I1869453
tp5343
a(I1945349
I1946678
tp5344
a(I1965390
I1965607
tp5345
a(I2015244
I2015993
tp5346
a(I2038045
I2038328
tp5347
a(I2094223
I2095250
tp5348
a(I2228751
I2231358
tp5349
a(I2271974
I2272736
tp5350
a(I2332841
I2333966
tp5351
a(I2348763
I2348907
tp5352
a(I2395670
I2396727
tp5353
a(I2444330
I2445160
tp5354
a(I2479036
I2479388
tp5355
a(I2492895
I2493058
tp5356
aa(lp5357
(I12395
I12650
tp5358
a(I69696
I70469
tp5359
a(I114437
I115021
tp5360
a(I159905
I160880
tp5361
a(I300820
I303711
tp5362
a(I348893
I349747
tp5363
a(I383198
I383720
tp5364
a(I408860
I409136
tp5365
a(I422982
I423212
tp5366
a(I500783
I502628
tp5367
a(I577968
I579335
tp5368
a(I604431
I604765
tp5369
a(I643105
I643719
tp5370
a(I669284
I669723
tp5371
a(I758304
I759810
tp5372
a(I815432
I816428
tp5373
a(I856122
I856763
tp5374
a(I906301
I906977
tp5375
a(I970803
I971720
tp5376
a(I1017837
I1018633
tp5377
a(I1062808
I1063670
tp5378
a(I1085963
I1086225
tp5379
a(I1157520
I1158729
tp5380
a(I1204806
I1205668
tp5381
a(I1261543
I1262441
tp5382
a(I1312481
I1313088
tp5383
a(I1333780
I1334055
tp5384
a(I1405113
I1406375
tp5385
a(I1427914
I1428177
tp5386
a(I1458346
I1458830
tp5387
a(I1475136
I1475398
tp5388
a(I1534559
I1535664
tp5389
a(I1569353
I1569803
tp5390
a(I1588837
I1589395
tp5391
a(I1704596
I1706647
tp5392
a(I1782612
I1783967
tp5393
a(I1832856
I1833628
tp5394
a(I1869453
I1870128
tp5395
a(I1946678
I1947995
tp5396
a(I1965607
I1965830
tp5397
a(I2015993
I2016743
tp5398
a(I2038328
I2038605
tp5399
a(I2095250
I2096236
tp5400
a(I2231358
I2233952
tp5401
a(I2272736
I2273510
tp5402
a(I2333966
I2335074
tp5403
a(I2348907
I2349059
tp5404
a(I2396727
I2397754
tp5405
a(I2445160
I2446012
tp5406
a(I2479388
I2479750
tp5407
a(I2493058
I2493236
tp5408
aa(lp5409
(I12650
I12910
tp5410
a(I70469
I71246
tp5411
a(I115021
I115631
tp5412
a(I160880
I161879
tp5413
a(I303711
I306630
tp5414
a(I349747
I350621
tp5415
a(I383720
I384255
tp5416
a(I409136
I409406
tp5417
a(I423212
I423448
tp5418
a(I502628
I504517
tp5419
a(I579335
I580735
tp5420
a(I604765
I605110
tp5421
a(I643719
I644349
tp5422
a(I669723
I670180
tp5423
a(I759810
I761301
tp5424
a(I816428
I817433
tp5425
a(I856763
I857405
tp5426
a(I906977
I907667
tp5427
a(I971720
I972634
tp5428
a(I1018633
I1019469
tp5429
a(I1063670
I1064576
tp5430
a(I1086225
I1086489
tp5431
a(I1158729
I1159936
tp5432
a(I1205668
I1206540
tp5433
a(I1262441
I1263415
tp5434
a(I1313088
I1313686
tp5435
a(I1334055
I1334345
tp5436
a(I1406375
I1407638
tp5437
a(I1428177
I1428467
tp5438
a(I1458830
I1459329
tp5439
a(I1475398
I1475647
tp5440
a(I1535664
I1536802
tp5441
a(I1569803
I1570246
tp5442
a(I1589395
I1589954
tp5443
a(I1706647
I1708725
tp5444
a(I1783967
I1785316
tp5445
a(I1833628
I1834406
tp5446
a(I1870128
I1870829
tp5447
a(I1947995
I1949360
tp5448
a(I1965830
I1966057
tp5449
a(I2016743
I2017508
tp5450
a(I2038605
I2038898
tp5451
a(I2096236
I2097260
tp5452
a(I2233952
I2236620
tp5453
a(I2273510
I2274299
tp5454
a(I2335074
I2336207
tp5455
a(I2349059
I2349211
tp5456
a(I2397754
I2398833
tp5457
a(I2446012
I2446852
tp5458
a(I2479750
I2480115
tp5459
aNaa.